
pwm.elf:     file format elf32-littlearm

Sections:
Idx Name          Size      VMA       LMA       File off  Algn
  0 .isr_vector   000001c4  08000000  08000000  00001000  2**0
                  CONTENTS, ALLOC, LOAD, READONLY, DATA
  1 .text         00002f0c  080001c4  080001c4  000011c4  2**2
                  CONTENTS, ALLOC, LOAD, READONLY, CODE
  2 .rodata       00000018  080030d0  080030d0  000040d0  2**2
                  CONTENTS, ALLOC, LOAD, READONLY, DATA
  3 .ARM.extab    00000000  080030e8  080030e8  0000500c  2**0
                  CONTENTS
  4 .ARM          00000008  080030e8  080030e8  000040e8  2**2
                  CONTENTS, ALLOC, LOAD, READONLY, DATA
  5 .preinit_array 00000000  080030f0  080030f0  0000500c  2**0
                  CONTENTS, ALLOC, LOAD, DATA
  6 .init_array   00000004  080030f0  080030f0  000040f0  2**2
                  CONTENTS, ALLOC, LOAD, READONLY, DATA
  7 .fini_array   00000004  080030f4  080030f4  000040f4  2**2
                  CONTENTS, ALLOC, LOAD, READONLY, DATA
  8 .data         0000000c  20000000  080030f8  00005000  2**2
                  CONTENTS, ALLOC, LOAD, DATA
  9 .bss          000000f8  2000000c  08003104  0000500c  2**2
                  ALLOC
 10 ._user_heap_stack 00000604  20000104  08003104  00005104  2**0
                  ALLOC
 11 .ARM.attributes 00000030  00000000  00000000  0000500c  2**0
                  CONTENTS, READONLY
 12 .debug_info   0000c42d  00000000  00000000  0000503c  2**0
                  CONTENTS, READONLY, DEBUGGING, OCTETS
 13 .debug_abbrev 00001a36  00000000  00000000  00011469  2**0
                  CONTENTS, READONLY, DEBUGGING, OCTETS
 14 .debug_aranges 00000c10  00000000  00000000  00012ea0  2**3
                  CONTENTS, READONLY, DEBUGGING, OCTETS
 15 .debug_rnglists 0000097d  00000000  00000000  00013ab0  2**0
                  CONTENTS, READONLY, DEBUGGING, OCTETS
 16 .debug_macro  00020f5c  00000000  00000000  0001442d  2**0
                  CONTENTS, READONLY, DEBUGGING, OCTETS
 17 .debug_line   0000dd29  00000000  00000000  00035389  2**0
                  CONTENTS, READONLY, DEBUGGING, OCTETS
 18 .debug_str    000cd044  00000000  00000000  000430b2  2**0
                  CONTENTS, READONLY, DEBUGGING, OCTETS
 19 .comment      00000043  00000000  00000000  001100f6  2**0
                  CONTENTS, READONLY
 20 .debug_frame  0000332c  00000000  00000000  0011013c  2**2
                  CONTENTS, READONLY, DEBUGGING, OCTETS
 21 .debug_line_str 00000061  00000000  00000000  00113468  2**0
                  CONTENTS, READONLY, DEBUGGING, OCTETS

Disassembly of section .text:

080001c4 <__do_global_dtors_aux>:
 80001c4:	b510      	push	{r4, lr}
 80001c6:	4c05      	ldr	r4, [pc, #20]	@ (80001dc <__do_global_dtors_aux+0x18>)
 80001c8:	7823      	ldrb	r3, [r4, #0]
 80001ca:	b933      	cbnz	r3, 80001da <__do_global_dtors_aux+0x16>
 80001cc:	4b04      	ldr	r3, [pc, #16]	@ (80001e0 <__do_global_dtors_aux+0x1c>)
 80001ce:	b113      	cbz	r3, 80001d6 <__do_global_dtors_aux+0x12>
 80001d0:	4804      	ldr	r0, [pc, #16]	@ (80001e4 <__do_global_dtors_aux+0x20>)
 80001d2:	f3af 8000 	nop.w
 80001d6:	2301      	movs	r3, #1
 80001d8:	7023      	strb	r3, [r4, #0]
 80001da:	bd10      	pop	{r4, pc}
 80001dc:	2000000c 	.word	0x2000000c
 80001e0:	00000000 	.word	0x00000000
 80001e4:	080030b8 	.word	0x080030b8

080001e8 <frame_dummy>:
 80001e8:	b508      	push	{r3, lr}
 80001ea:	4b03      	ldr	r3, [pc, #12]	@ (80001f8 <frame_dummy+0x10>)
 80001ec:	b11b      	cbz	r3, 80001f6 <frame_dummy+0xe>
 80001ee:	4903      	ldr	r1, [pc, #12]	@ (80001fc <frame_dummy+0x14>)
 80001f0:	4803      	ldr	r0, [pc, #12]	@ (8000200 <frame_dummy+0x18>)
 80001f2:	f3af 8000 	nop.w
 80001f6:	bd08      	pop	{r3, pc}
 80001f8:	00000000 	.word	0x00000000
 80001fc:	20000010 	.word	0x20000010
 8000200:	080030b8 	.word	0x080030b8

08000204 <__aeabi_uldivmod>:
 8000204:	b953      	cbnz	r3, 800021c <__aeabi_uldivmod+0x18>
 8000206:	b94a      	cbnz	r2, 800021c <__aeabi_uldivmod+0x18>
 8000208:	2900      	cmp	r1, #0
 800020a:	bf08      	it	eq
 800020c:	2800      	cmpeq	r0, #0
 800020e:	bf1c      	itt	ne
 8000210:	f04f 31ff 	movne.w	r1, #4294967295	@ 0xffffffff
 8000214:	f04f 30ff 	movne.w	r0, #4294967295	@ 0xffffffff
 8000218:	f000 b96a 	b.w	80004f0 <__aeabi_idiv0>
 800021c:	f1ad 0c08 	sub.w	ip, sp, #8
 8000220:	e96d ce04 	strd	ip, lr, [sp, #-16]!
 8000224:	f000 f806 	bl	8000234 <__udivmoddi4>
 8000228:	f8dd e004 	ldr.w	lr, [sp, #4]
 800022c:	e9dd 2302 	ldrd	r2, r3, [sp, #8]
 8000230:	b004      	add	sp, #16
 8000232:	4770      	bx	lr

08000234 <__udivmoddi4>:
 8000234:	e92d 47f0 	stmdb	sp!, {r4, r5, r6, r7, r8, r9, sl, lr}
 8000238:	9d08      	ldr	r5, [sp, #32]
 800023a:	460c      	mov	r4, r1
 800023c:	2b00      	cmp	r3, #0
 800023e:	d14e      	bne.n	80002de <__udivmoddi4+0xaa>
 8000240:	4694      	mov	ip, r2
 8000242:	458c      	cmp	ip, r1
 8000244:	4686      	mov	lr, r0
 8000246:	fab2 f282 	clz	r2, r2
 800024a:	d962      	bls.n	8000312 <__udivmoddi4+0xde>
 800024c:	b14a      	cbz	r2, 8000262 <__udivmoddi4+0x2e>
 800024e:	f1c2 0320 	rsb	r3, r2, #32
 8000252:	4091      	lsls	r1, r2
 8000254:	fa20 f303 	lsr.w	r3, r0, r3
 8000258:	fa0c fc02 	lsl.w	ip, ip, r2
 800025c:	4319      	orrs	r1, r3
 800025e:	fa00 fe02 	lsl.w	lr, r0, r2
 8000262:	ea4f 471c 	mov.w	r7, ip, lsr #16
 8000266:	fa1f f68c 	uxth.w	r6, ip
 800026a:	fbb1 f4f7 	udiv	r4, r1, r7
 800026e:	ea4f 431e 	mov.w	r3, lr, lsr #16
 8000272:	fb07 1114 	mls	r1, r7, r4, r1
 8000276:	ea43 4301 	orr.w	r3, r3, r1, lsl #16
 800027a:	fb04 f106 	mul.w	r1, r4, r6
 800027e:	4299      	cmp	r1, r3
 8000280:	d90a      	bls.n	8000298 <__udivmoddi4+0x64>
 8000282:	eb1c 0303 	adds.w	r3, ip, r3
 8000286:	f104 30ff 	add.w	r0, r4, #4294967295	@ 0xffffffff
 800028a:	f080 8112 	bcs.w	80004b2 <__udivmoddi4+0x27e>
 800028e:	4299      	cmp	r1, r3
 8000290:	f240 810f 	bls.w	80004b2 <__udivmoddi4+0x27e>
 8000294:	3c02      	subs	r4, #2
 8000296:	4463      	add	r3, ip
 8000298:	1a59      	subs	r1, r3, r1
 800029a:	fa1f f38e 	uxth.w	r3, lr
 800029e:	fbb1 f0f7 	udiv	r0, r1, r7
 80002a2:	fb07 1110 	mls	r1, r7, r0, r1
 80002a6:	ea43 4301 	orr.w	r3, r3, r1, lsl #16
 80002aa:	fb00 f606 	mul.w	r6, r0, r6
 80002ae:	429e      	cmp	r6, r3
 80002b0:	d90a      	bls.n	80002c8 <__udivmoddi4+0x94>
 80002b2:	eb1c 0303 	adds.w	r3, ip, r3
 80002b6:	f100 31ff 	add.w	r1, r0, #4294967295	@ 0xffffffff
 80002ba:	f080 80fc 	bcs.w	80004b6 <__udivmoddi4+0x282>
 80002be:	429e      	cmp	r6, r3
 80002c0:	f240 80f9 	bls.w	80004b6 <__udivmoddi4+0x282>
 80002c4:	4463      	add	r3, ip
 80002c6:	3802      	subs	r0, #2
 80002c8:	1b9b      	subs	r3, r3, r6
 80002ca:	ea40 4004 	orr.w	r0, r0, r4, lsl #16
 80002ce:	2100      	movs	r1, #0
 80002d0:	b11d      	cbz	r5, 80002da <__udivmoddi4+0xa6>
 80002d2:	40d3      	lsrs	r3, r2
 80002d4:	2200      	movs	r2, #0
 80002d6:	e9c5 3200 	strd	r3, r2, [r5]
 80002da:	e8bd 87f0 	ldmia.w	sp!, {r4, r5, r6, r7, r8, r9, sl, pc}
 80002de:	428b      	cmp	r3, r1
 80002e0:	d905      	bls.n	80002ee <__udivmoddi4+0xba>
 80002e2:	b10d      	cbz	r5, 80002e8 <__udivmoddi4+0xb4>
 80002e4:	e9c5 0100 	strd	r0, r1, [r5]
 80002e8:	2100      	movs	r1, #0
 80002ea:	4608      	mov	r0, r1
 80002ec:	e7f5      	b.n	80002da <__udivmoddi4+0xa6>
 80002ee:	fab3 f183 	clz	r1, r3
 80002f2:	2900      	cmp	r1, #0
 80002f4:	d146      	bne.n	8000384 <__udivmoddi4+0x150>
 80002f6:	42a3      	cmp	r3, r4
 80002f8:	d302      	bcc.n	8000300 <__udivmoddi4+0xcc>
 80002fa:	4290      	cmp	r0, r2
 80002fc:	f0c0 80f0 	bcc.w	80004e0 <__udivmoddi4+0x2ac>
 8000300:	1a86      	subs	r6, r0, r2
 8000302:	eb64 0303 	sbc.w	r3, r4, r3
 8000306:	2001      	movs	r0, #1
 8000308:	2d00      	cmp	r5, #0
 800030a:	d0e6      	beq.n	80002da <__udivmoddi4+0xa6>
 800030c:	e9c5 6300 	strd	r6, r3, [r5]
 8000310:	e7e3      	b.n	80002da <__udivmoddi4+0xa6>
 8000312:	2a00      	cmp	r2, #0
 8000314:	f040 8090 	bne.w	8000438 <__udivmoddi4+0x204>
 8000318:	eba1 040c 	sub.w	r4, r1, ip
 800031c:	ea4f 481c 	mov.w	r8, ip, lsr #16
 8000320:	fa1f f78c 	uxth.w	r7, ip
 8000324:	2101      	movs	r1, #1
 8000326:	fbb4 f6f8 	udiv	r6, r4, r8
 800032a:	ea4f 431e 	mov.w	r3, lr, lsr #16
 800032e:	fb08 4416 	mls	r4, r8, r6, r4
 8000332:	ea43 4304 	orr.w	r3, r3, r4, lsl #16
 8000336:	fb07 f006 	mul.w	r0, r7, r6
 800033a:	4298      	cmp	r0, r3
 800033c:	d908      	bls.n	8000350 <__udivmoddi4+0x11c>
 800033e:	eb1c 0303 	adds.w	r3, ip, r3
 8000342:	f106 34ff 	add.w	r4, r6, #4294967295	@ 0xffffffff
 8000346:	d202      	bcs.n	800034e <__udivmoddi4+0x11a>
 8000348:	4298      	cmp	r0, r3
 800034a:	f200 80cd 	bhi.w	80004e8 <__udivmoddi4+0x2b4>
 800034e:	4626      	mov	r6, r4
 8000350:	1a1c      	subs	r4, r3, r0
 8000352:	fa1f f38e 	uxth.w	r3, lr
 8000356:	fbb4 f0f8 	udiv	r0, r4, r8
 800035a:	fb08 4410 	mls	r4, r8, r0, r4
 800035e:	ea43 4304 	orr.w	r3, r3, r4, lsl #16
 8000362:	fb00 f707 	mul.w	r7, r0, r7
 8000366:	429f      	cmp	r7, r3
 8000368:	d908      	bls.n	800037c <__udivmoddi4+0x148>
 800036a:	eb1c 0303 	adds.w	r3, ip, r3
 800036e:	f100 34ff 	add.w	r4, r0, #4294967295	@ 0xffffffff
 8000372:	d202      	bcs.n	800037a <__udivmoddi4+0x146>
 8000374:	429f      	cmp	r7, r3
 8000376:	f200 80b0 	bhi.w	80004da <__udivmoddi4+0x2a6>
 800037a:	4620      	mov	r0, r4
 800037c:	1bdb      	subs	r3, r3, r7
 800037e:	ea40 4006 	orr.w	r0, r0, r6, lsl #16
 8000382:	e7a5      	b.n	80002d0 <__udivmoddi4+0x9c>
 8000384:	f1c1 0620 	rsb	r6, r1, #32
 8000388:	408b      	lsls	r3, r1
 800038a:	fa22 f706 	lsr.w	r7, r2, r6
 800038e:	431f      	orrs	r7, r3
 8000390:	fa20 fc06 	lsr.w	ip, r0, r6
 8000394:	fa04 f301 	lsl.w	r3, r4, r1
 8000398:	ea43 030c 	orr.w	r3, r3, ip
 800039c:	40f4      	lsrs	r4, r6
 800039e:	fa00 f801 	lsl.w	r8, r0, r1
 80003a2:	0c38      	lsrs	r0, r7, #16
 80003a4:	ea4f 4913 	mov.w	r9, r3, lsr #16
 80003a8:	fbb4 fef0 	udiv	lr, r4, r0
 80003ac:	fa1f fc87 	uxth.w	ip, r7
 80003b0:	fb00 441e 	mls	r4, r0, lr, r4
 80003b4:	ea49 4404 	orr.w	r4, r9, r4, lsl #16
 80003b8:	fb0e f90c 	mul.w	r9, lr, ip
 80003bc:	45a1      	cmp	r9, r4
 80003be:	fa02 f201 	lsl.w	r2, r2, r1
 80003c2:	d90a      	bls.n	80003da <__udivmoddi4+0x1a6>
 80003c4:	193c      	adds	r4, r7, r4
 80003c6:	f10e 3aff 	add.w	sl, lr, #4294967295	@ 0xffffffff
 80003ca:	f080 8084 	bcs.w	80004d6 <__udivmoddi4+0x2a2>
 80003ce:	45a1      	cmp	r9, r4
 80003d0:	f240 8081 	bls.w	80004d6 <__udivmoddi4+0x2a2>
 80003d4:	f1ae 0e02 	sub.w	lr, lr, #2
 80003d8:	443c      	add	r4, r7
 80003da:	eba4 0409 	sub.w	r4, r4, r9
 80003de:	fa1f f983 	uxth.w	r9, r3
 80003e2:	fbb4 f3f0 	udiv	r3, r4, r0
 80003e6:	fb00 4413 	mls	r4, r0, r3, r4
 80003ea:	ea49 4404 	orr.w	r4, r9, r4, lsl #16
 80003ee:	fb03 fc0c 	mul.w	ip, r3, ip
 80003f2:	45a4      	cmp	ip, r4
 80003f4:	d907      	bls.n	8000406 <__udivmoddi4+0x1d2>
 80003f6:	193c      	adds	r4, r7, r4
 80003f8:	f103 30ff 	add.w	r0, r3, #4294967295	@ 0xffffffff
 80003fc:	d267      	bcs.n	80004ce <__udivmoddi4+0x29a>
 80003fe:	45a4      	cmp	ip, r4
 8000400:	d965      	bls.n	80004ce <__udivmoddi4+0x29a>
 8000402:	3b02      	subs	r3, #2
 8000404:	443c      	add	r4, r7
 8000406:	ea43 400e 	orr.w	r0, r3, lr, lsl #16
 800040a:	fba0 9302 	umull	r9, r3, r0, r2
 800040e:	eba4 040c 	sub.w	r4, r4, ip
 8000412:	429c      	cmp	r4, r3
 8000414:	46ce      	mov	lr, r9
 8000416:	469c      	mov	ip, r3
 8000418:	d351      	bcc.n	80004be <__udivmoddi4+0x28a>
 800041a:	d04e      	beq.n	80004ba <__udivmoddi4+0x286>
 800041c:	b155      	cbz	r5, 8000434 <__udivmoddi4+0x200>
 800041e:	ebb8 030e 	subs.w	r3, r8, lr
 8000422:	eb64 040c 	sbc.w	r4, r4, ip
 8000426:	fa04 f606 	lsl.w	r6, r4, r6
 800042a:	40cb      	lsrs	r3, r1
 800042c:	431e      	orrs	r6, r3
 800042e:	40cc      	lsrs	r4, r1
 8000430:	e9c5 6400 	strd	r6, r4, [r5]
 8000434:	2100      	movs	r1, #0
 8000436:	e750      	b.n	80002da <__udivmoddi4+0xa6>
 8000438:	f1c2 0320 	rsb	r3, r2, #32
 800043c:	fa20 f103 	lsr.w	r1, r0, r3
 8000440:	fa0c fc02 	lsl.w	ip, ip, r2
 8000444:	fa24 f303 	lsr.w	r3, r4, r3
 8000448:	4094      	lsls	r4, r2
 800044a:	430c      	orrs	r4, r1
 800044c:	ea4f 481c 	mov.w	r8, ip, lsr #16
 8000450:	fa00 fe02 	lsl.w	lr, r0, r2
 8000454:	fa1f f78c 	uxth.w	r7, ip
 8000458:	fbb3 f0f8 	udiv	r0, r3, r8
 800045c:	fb08 3110 	mls	r1, r8, r0, r3
 8000460:	0c23      	lsrs	r3, r4, #16
 8000462:	ea43 4301 	orr.w	r3, r3, r1, lsl #16
 8000466:	fb00 f107 	mul.w	r1, r0, r7
 800046a:	4299      	cmp	r1, r3
 800046c:	d908      	bls.n	8000480 <__udivmoddi4+0x24c>
 800046e:	eb1c 0303 	adds.w	r3, ip, r3
 8000472:	f100 36ff 	add.w	r6, r0, #4294967295	@ 0xffffffff
 8000476:	d22c      	bcs.n	80004d2 <__udivmoddi4+0x29e>
 8000478:	4299      	cmp	r1, r3
 800047a:	d92a      	bls.n	80004d2 <__udivmoddi4+0x29e>
 800047c:	3802      	subs	r0, #2
 800047e:	4463      	add	r3, ip
 8000480:	1a5b      	subs	r3, r3, r1
 8000482:	b2a4      	uxth	r4, r4
 8000484:	fbb3 f1f8 	udiv	r1, r3, r8
 8000488:	fb08 3311 	mls	r3, r8, r1, r3
 800048c:	ea44 4403 	orr.w	r4, r4, r3, lsl #16
 8000490:	fb01 f307 	mul.w	r3, r1, r7
 8000494:	42a3      	cmp	r3, r4
 8000496:	d908      	bls.n	80004aa <__udivmoddi4+0x276>
 8000498:	eb1c 0404 	adds.w	r4, ip, r4
 800049c:	f101 36ff 	add.w	r6, r1, #4294967295	@ 0xffffffff
 80004a0:	d213      	bcs.n	80004ca <__udivmoddi4+0x296>
 80004a2:	42a3      	cmp	r3, r4
 80004a4:	d911      	bls.n	80004ca <__udivmoddi4+0x296>
 80004a6:	3902      	subs	r1, #2
 80004a8:	4464      	add	r4, ip
 80004aa:	1ae4      	subs	r4, r4, r3
 80004ac:	ea41 4100 	orr.w	r1, r1, r0, lsl #16
 80004b0:	e739      	b.n	8000326 <__udivmoddi4+0xf2>
 80004b2:	4604      	mov	r4, r0
 80004b4:	e6f0      	b.n	8000298 <__udivmoddi4+0x64>
 80004b6:	4608      	mov	r0, r1
 80004b8:	e706      	b.n	80002c8 <__udivmoddi4+0x94>
 80004ba:	45c8      	cmp	r8, r9
 80004bc:	d2ae      	bcs.n	800041c <__udivmoddi4+0x1e8>
 80004be:	ebb9 0e02 	subs.w	lr, r9, r2
 80004c2:	eb63 0c07 	sbc.w	ip, r3, r7
 80004c6:	3801      	subs	r0, #1
 80004c8:	e7a8      	b.n	800041c <__udivmoddi4+0x1e8>
 80004ca:	4631      	mov	r1, r6
 80004cc:	e7ed      	b.n	80004aa <__udivmoddi4+0x276>
 80004ce:	4603      	mov	r3, r0
 80004d0:	e799      	b.n	8000406 <__udivmoddi4+0x1d2>
 80004d2:	4630      	mov	r0, r6
 80004d4:	e7d4      	b.n	8000480 <__udivmoddi4+0x24c>
 80004d6:	46d6      	mov	lr, sl
 80004d8:	e77f      	b.n	80003da <__udivmoddi4+0x1a6>
 80004da:	4463      	add	r3, ip
 80004dc:	3802      	subs	r0, #2
 80004de:	e74d      	b.n	800037c <__udivmoddi4+0x148>
 80004e0:	4606      	mov	r6, r0
 80004e2:	4623      	mov	r3, r4
 80004e4:	4608      	mov	r0, r1
 80004e6:	e70f      	b.n	8000308 <__udivmoddi4+0xd4>
 80004e8:	3e02      	subs	r6, #2
 80004ea:	4463      	add	r3, ip
 80004ec:	e730      	b.n	8000350 <__udivmoddi4+0x11c>
 80004ee:	bf00      	nop

080004f0 <__aeabi_idiv0>:
 80004f0:	4770      	bx	lr
 80004f2:	bf00      	nop

080004f4 <main>:
/**
  * @brief  The application entry point.
  * @retval int
  */
int main(void)
{
 80004f4:	b580      	push	{r7, lr}
 80004f6:	b082      	sub	sp, #8
 80004f8:	af00      	add	r7, sp, #0
  /* USER CODE END 1 */

  /* MCU Configuration--------------------------------------------------------*/

  /* Reset of all peripherals, Initializes the Flash interface and the Systick. */
  HAL_Init();
 80004fa:	f000 fb6d 	bl	8000bd8 <HAL_Init>
  /* USER CODE BEGIN Init */

  /* USER CODE END Init */

  /* Configure the system clock */
  SystemClock_Config();
 80004fe:	f000 f821 	bl	8000544 <SystemClock_Config>
  /* USER CODE BEGIN SysInit */

  /* USER CODE END SysInit */

  /* Initialize all configured peripherals */
  MX_GPIO_Init();
 8000502:	f000 f98d 	bl	8000820 <MX_GPIO_Init>
  MX_USART2_UART_Init();
 8000506:	f000 f961 	bl	80007cc <MX_USART2_UART_Init>
  MX_TIM2_Init();
 800050a:	f000 f887 	bl	800061c <MX_TIM2_Init>
  MX_TIM3_Init();
 800050e:	f000 f8e7 	bl	80006e0 <MX_TIM3_Init>
  /* USER CODE BEGIN 2 */
	HAL_TIM_PWM_Start(&htim3, TIM_CHANNEL_2);
 8000512:	2104      	movs	r1, #4
 8000514:	480a      	ldr	r0, [pc, #40]	@ (8000540 <main+0x4c>)
 8000516:	f001 fcf5 	bl	8001f04 <HAL_TIM_PWM_Start>
		for (int i = 255; i > 0; i--) {
			__HAL_TIM_SET_COMPARE(&htim3, TIM_CHANNEL_2, i); //Gradually increase Duty Cycle, i = CCR1 register
			HAL_Delay(10);
		}*/

		for (int i = 0; i < 1000; i = i+100) {
 800051a:	2300      	movs	r3, #0
 800051c:	607b      	str	r3, [r7, #4]
 800051e:	e00a      	b.n	8000536 <main+0x42>
			__HAL_TIM_SET_COMPARE(&htim3, TIM_CHANNEL_2, i);
 8000520:	4b07      	ldr	r3, [pc, #28]	@ (8000540 <main+0x4c>)
 8000522:	681b      	ldr	r3, [r3, #0]
 8000524:	687a      	ldr	r2, [r7, #4]
 8000526:	639a      	str	r2, [r3, #56]	@ 0x38
			HAL_Delay(2000);
 8000528:	f44f 60fa 	mov.w	r0, #2000	@ 0x7d0
 800052c:	f000 fbc6 	bl	8000cbc <HAL_Delay>
		for (int i = 0; i < 1000; i = i+100) {
 8000530:	687b      	ldr	r3, [r7, #4]
 8000532:	3364      	adds	r3, #100	@ 0x64
 8000534:	607b      	str	r3, [r7, #4]
 8000536:	687b      	ldr	r3, [r7, #4]
 8000538:	f5b3 7f7a 	cmp.w	r3, #1000	@ 0x3e8
 800053c:	dbf0      	blt.n	8000520 <main+0x2c>
 800053e:	e7ec      	b.n	800051a <main+0x26>
 8000540:	20000070 	.word	0x20000070

08000544 <SystemClock_Config>:
/**
  * @brief System Clock Configuration
  * @retval None
  */
void SystemClock_Config(void)
{
 8000544:	b580      	push	{r7, lr}
 8000546:	b094      	sub	sp, #80	@ 0x50
 8000548:	af00      	add	r7, sp, #0
  RCC_OscInitTypeDef RCC_OscInitStruct = {0};
 800054a:	f107 031c 	add.w	r3, r7, #28
 800054e:	2234      	movs	r2, #52	@ 0x34
 8000550:	2100      	movs	r1, #0
 8000552:	4618      	mov	r0, r3
 8000554:	f002 fd84 	bl	8003060 <memset>
  RCC_ClkInitTypeDef RCC_ClkInitStruct = {0};
 8000558:	f107 0308 	add.w	r3, r7, #8
 800055c:	2200      	movs	r2, #0
 800055e:	601a      	str	r2, [r3, #0]
 8000560:	605a      	str	r2, [r3, #4]
 8000562:	609a      	str	r2, [r3, #8]
 8000564:	60da      	str	r2, [r3, #12]
 8000566:	611a      	str	r2, [r3, #16]

  /** Configure the main internal regulator output voltage
  */
  __HAL_RCC_PWR_CLK_ENABLE();
 8000568:	2300      	movs	r3, #0
 800056a:	607b      	str	r3, [r7, #4]
 800056c:	4b29      	ldr	r3, [pc, #164]	@ (8000614 <SystemClock_Config+0xd0>)
 800056e:	6c1b      	ldr	r3, [r3, #64]	@ 0x40
 8000570:	4a28      	ldr	r2, [pc, #160]	@ (8000614 <SystemClock_Config+0xd0>)
 8000572:	f043 5380 	orr.w	r3, r3, #268435456	@ 0x10000000
 8000576:	6413      	str	r3, [r2, #64]	@ 0x40
 8000578:	4b26      	ldr	r3, [pc, #152]	@ (8000614 <SystemClock_Config+0xd0>)
 800057a:	6c1b      	ldr	r3, [r3, #64]	@ 0x40
 800057c:	f003 5380 	and.w	r3, r3, #268435456	@ 0x10000000
 8000580:	607b      	str	r3, [r7, #4]
 8000582:	687b      	ldr	r3, [r7, #4]
  __HAL_PWR_VOLTAGESCALING_CONFIG(PWR_REGULATOR_VOLTAGE_SCALE3);
 8000584:	2300      	movs	r3, #0
 8000586:	603b      	str	r3, [r7, #0]
 8000588:	4b23      	ldr	r3, [pc, #140]	@ (8000618 <SystemClock_Config+0xd4>)
 800058a:	681b      	ldr	r3, [r3, #0]
 800058c:	f423 4340 	bic.w	r3, r3, #49152	@ 0xc000
 8000590:	4a21      	ldr	r2, [pc, #132]	@ (8000618 <SystemClock_Config+0xd4>)
 8000592:	f443 4380 	orr.w	r3, r3, #16384	@ 0x4000
 8000596:	6013      	str	r3, [r2, #0]
 8000598:	4b1f      	ldr	r3, [pc, #124]	@ (8000618 <SystemClock_Config+0xd4>)
 800059a:	681b      	ldr	r3, [r3, #0]
 800059c:	f403 4340 	and.w	r3, r3, #49152	@ 0xc000
 80005a0:	603b      	str	r3, [r7, #0]
 80005a2:	683b      	ldr	r3, [r7, #0]

  /** Initializes the RCC Oscillators according to the specified parameters
  * in the RCC_OscInitTypeDef structure.
  */
  RCC_OscInitStruct.OscillatorType = RCC_OSCILLATORTYPE_HSI;
 80005a4:	2302      	movs	r3, #2
 80005a6:	61fb      	str	r3, [r7, #28]
  RCC_OscInitStruct.HSIState = RCC_HSI_ON;
 80005a8:	2301      	movs	r3, #1
 80005aa:	62bb      	str	r3, [r7, #40]	@ 0x28
  RCC_OscInitStruct.HSICalibrationValue = RCC_HSICALIBRATION_DEFAULT;
 80005ac:	2310      	movs	r3, #16
 80005ae:	62fb      	str	r3, [r7, #44]	@ 0x2c
  RCC_OscInitStruct.PLL.PLLState = RCC_PLL_ON;
 80005b0:	2302      	movs	r3, #2
 80005b2:	637b      	str	r3, [r7, #52]	@ 0x34
  RCC_OscInitStruct.PLL.PLLSource = RCC_PLLSOURCE_HSI;
 80005b4:	2300      	movs	r3, #0
 80005b6:	63bb      	str	r3, [r7, #56]	@ 0x38
  RCC_OscInitStruct.PLL.PLLM = 8;
 80005b8:	2308      	movs	r3, #8
 80005ba:	63fb      	str	r3, [r7, #60]	@ 0x3c
  RCC_OscInitStruct.PLL.PLLN = 64;
 80005bc:	2340      	movs	r3, #64	@ 0x40
 80005be:	643b      	str	r3, [r7, #64]	@ 0x40
  RCC_OscInitStruct.PLL.PLLP = RCC_PLLP_DIV2;
 80005c0:	2302      	movs	r3, #2
 80005c2:	647b      	str	r3, [r7, #68]	@ 0x44
  RCC_OscInitStruct.PLL.PLLQ = 2;
 80005c4:	2302      	movs	r3, #2
 80005c6:	64bb      	str	r3, [r7, #72]	@ 0x48
  RCC_OscInitStruct.PLL.PLLR = 2;
 80005c8:	2302      	movs	r3, #2
 80005ca:	64fb      	str	r3, [r7, #76]	@ 0x4c
  if (HAL_RCC_OscConfig(&RCC_OscInitStruct) != HAL_OK)
 80005cc:	f107 031c 	add.w	r3, r7, #28
 80005d0:	4618      	mov	r0, r3
 80005d2:	f001 f95b 	bl	800188c <HAL_RCC_OscConfig>
 80005d6:	4603      	mov	r3, r0
 80005d8:	2b00      	cmp	r3, #0
 80005da:	d001      	beq.n	80005e0 <SystemClock_Config+0x9c>
  {
    Error_Handler();
 80005dc:	f000 f97a 	bl	80008d4 <Error_Handler>
  }

  /** Initializes the CPU, AHB and APB buses clocks
  */
  RCC_ClkInitStruct.ClockType = RCC_CLOCKTYPE_HCLK|RCC_CLOCKTYPE_SYSCLK
 80005e0:	230f      	movs	r3, #15
 80005e2:	60bb      	str	r3, [r7, #8]
                              |RCC_CLOCKTYPE_PCLK1|RCC_CLOCKTYPE_PCLK2;
  RCC_ClkInitStruct.SYSCLKSource = RCC_SYSCLKSOURCE_PLLCLK;
 80005e4:	2302      	movs	r3, #2
 80005e6:	60fb      	str	r3, [r7, #12]
  RCC_ClkInitStruct.AHBCLKDivider = RCC_SYSCLK_DIV1;
 80005e8:	2300      	movs	r3, #0
 80005ea:	613b      	str	r3, [r7, #16]
  RCC_ClkInitStruct.APB1CLKDivider = RCC_HCLK_DIV2;
 80005ec:	f44f 5380 	mov.w	r3, #4096	@ 0x1000
 80005f0:	617b      	str	r3, [r7, #20]
  RCC_ClkInitStruct.APB2CLKDivider = RCC_HCLK_DIV1;
 80005f2:	2300      	movs	r3, #0
 80005f4:	61bb      	str	r3, [r7, #24]

  if (HAL_RCC_ClockConfig(&RCC_ClkInitStruct, FLASH_LATENCY_2) != HAL_OK)
 80005f6:	f107 0308 	add.w	r3, r7, #8
 80005fa:	2102      	movs	r1, #2
 80005fc:	4618      	mov	r0, r3
 80005fe:	f000 fdfb 	bl	80011f8 <HAL_RCC_ClockConfig>
 8000602:	4603      	mov	r3, r0
 8000604:	2b00      	cmp	r3, #0
 8000606:	d001      	beq.n	800060c <SystemClock_Config+0xc8>
  {
    Error_Handler();
 8000608:	f000 f964 	bl	80008d4 <Error_Handler>
  }
}
 800060c:	bf00      	nop
 800060e:	3750      	adds	r7, #80	@ 0x50
 8000610:	46bd      	mov	sp, r7
 8000612:	bd80      	pop	{r7, pc}
 8000614:	40023800 	.word	0x40023800
 8000618:	40007000 	.word	0x40007000

0800061c <MX_TIM2_Init>:
  * @brief TIM2 Initialization Function
  * @param None
  * @retval None
  */
static void MX_TIM2_Init(void)
{
 800061c:	b580      	push	{r7, lr}
 800061e:	b08a      	sub	sp, #40	@ 0x28
 8000620:	af00      	add	r7, sp, #0

  /* USER CODE BEGIN TIM2_Init 0 */

  /* USER CODE END TIM2_Init 0 */

  TIM_MasterConfigTypeDef sMasterConfig = {0};
 8000622:	f107 0320 	add.w	r3, r7, #32
 8000626:	2200      	movs	r2, #0
 8000628:	601a      	str	r2, [r3, #0]
 800062a:	605a      	str	r2, [r3, #4]
  TIM_OC_InitTypeDef sConfigOC = {0};
 800062c:	1d3b      	adds	r3, r7, #4
 800062e:	2200      	movs	r2, #0
 8000630:	601a      	str	r2, [r3, #0]
 8000632:	605a      	str	r2, [r3, #4]
 8000634:	609a      	str	r2, [r3, #8]
 8000636:	60da      	str	r2, [r3, #12]
 8000638:	611a      	str	r2, [r3, #16]
 800063a:	615a      	str	r2, [r3, #20]
 800063c:	619a      	str	r2, [r3, #24]

  /* USER CODE BEGIN TIM2_Init 1 */

  /* USER CODE END TIM2_Init 1 */
  htim2.Instance = TIM2;
 800063e:	4b27      	ldr	r3, [pc, #156]	@ (80006dc <MX_TIM2_Init+0xc0>)
 8000640:	f04f 4280 	mov.w	r2, #1073741824	@ 0x40000000
 8000644:	601a      	str	r2, [r3, #0]
  htim2.Init.Prescaler = 0;
 8000646:	4b25      	ldr	r3, [pc, #148]	@ (80006dc <MX_TIM2_Init+0xc0>)
 8000648:	2200      	movs	r2, #0
 800064a:	605a      	str	r2, [r3, #4]
  htim2.Init.CounterMode = TIM_COUNTERMODE_UP;
 800064c:	4b23      	ldr	r3, [pc, #140]	@ (80006dc <MX_TIM2_Init+0xc0>)
 800064e:	2200      	movs	r2, #0
 8000650:	609a      	str	r2, [r3, #8]
  htim2.Init.Period = 255;
 8000652:	4b22      	ldr	r3, [pc, #136]	@ (80006dc <MX_TIM2_Init+0xc0>)
 8000654:	22ff      	movs	r2, #255	@ 0xff
 8000656:	60da      	str	r2, [r3, #12]
  htim2.Init.ClockDivision = TIM_CLOCKDIVISION_DIV1;
 8000658:	4b20      	ldr	r3, [pc, #128]	@ (80006dc <MX_TIM2_Init+0xc0>)
 800065a:	2200      	movs	r2, #0
 800065c:	611a      	str	r2, [r3, #16]
  htim2.Init.AutoReloadPreload = TIM_AUTORELOAD_PRELOAD_DISABLE;
 800065e:	4b1f      	ldr	r3, [pc, #124]	@ (80006dc <MX_TIM2_Init+0xc0>)
 8000660:	2200      	movs	r2, #0
 8000662:	619a      	str	r2, [r3, #24]
  if (HAL_TIM_PWM_Init(&htim2) != HAL_OK)
 8000664:	481d      	ldr	r0, [pc, #116]	@ (80006dc <MX_TIM2_Init+0xc0>)
 8000666:	f001 fbfe 	bl	8001e66 <HAL_TIM_PWM_Init>
 800066a:	4603      	mov	r3, r0
 800066c:	2b00      	cmp	r3, #0
 800066e:	d001      	beq.n	8000674 <MX_TIM2_Init+0x58>
  {
    Error_Handler();
 8000670:	f000 f930 	bl	80008d4 <Error_Handler>
  }
  sMasterConfig.MasterOutputTrigger = TIM_TRGO_RESET;
 8000674:	2300      	movs	r3, #0
 8000676:	623b      	str	r3, [r7, #32]
  sMasterConfig.MasterSlaveMode = TIM_MASTERSLAVEMODE_DISABLE;
 8000678:	2300      	movs	r3, #0
 800067a:	627b      	str	r3, [r7, #36]	@ 0x24
  if (HAL_TIMEx_MasterConfigSynchronization(&htim2, &sMasterConfig) != HAL_OK)
 800067c:	f107 0320 	add.w	r3, r7, #32
 8000680:	4619      	mov	r1, r3
 8000682:	4816      	ldr	r0, [pc, #88]	@ (80006dc <MX_TIM2_Init+0xc0>)
 8000684:	f002 f9ac 	bl	80029e0 <HAL_TIMEx_MasterConfigSynchronization>
 8000688:	4603      	mov	r3, r0
 800068a:	2b00      	cmp	r3, #0
 800068c:	d001      	beq.n	8000692 <MX_TIM2_Init+0x76>
  {
    Error_Handler();
 800068e:	f000 f921 	bl	80008d4 <Error_Handler>
  }
  sConfigOC.OCMode = TIM_OCMODE_PWM1;
 8000692:	2360      	movs	r3, #96	@ 0x60
 8000694:	607b      	str	r3, [r7, #4]
  sConfigOC.Pulse = 0;
 8000696:	2300      	movs	r3, #0
 8000698:	60bb      	str	r3, [r7, #8]
  sConfigOC.OCPolarity = TIM_OCPOLARITY_HIGH;
 800069a:	2300      	movs	r3, #0
 800069c:	60fb      	str	r3, [r7, #12]
  sConfigOC.OCFastMode = TIM_OCFAST_DISABLE;
 800069e:	2300      	movs	r3, #0
 80006a0:	617b      	str	r3, [r7, #20]
  if (HAL_TIM_PWM_ConfigChannel(&htim2, &sConfigOC, TIM_CHANNEL_1) != HAL_OK)
 80006a2:	1d3b      	adds	r3, r7, #4
 80006a4:	2200      	movs	r2, #0
 80006a6:	4619      	mov	r1, r3
 80006a8:	480c      	ldr	r0, [pc, #48]	@ (80006dc <MX_TIM2_Init+0xc0>)
 80006aa:	f001 fcf3 	bl	8002094 <HAL_TIM_PWM_ConfigChannel>
 80006ae:	4603      	mov	r3, r0
 80006b0:	2b00      	cmp	r3, #0
 80006b2:	d001      	beq.n	80006b8 <MX_TIM2_Init+0x9c>
  {
    Error_Handler();
 80006b4:	f000 f90e 	bl	80008d4 <Error_Handler>
  }
  if (HAL_TIM_PWM_ConfigChannel(&htim2, &sConfigOC, TIM_CHANNEL_2) != HAL_OK)
 80006b8:	1d3b      	adds	r3, r7, #4
 80006ba:	2204      	movs	r2, #4
 80006bc:	4619      	mov	r1, r3
 80006be:	4807      	ldr	r0, [pc, #28]	@ (80006dc <MX_TIM2_Init+0xc0>)
 80006c0:	f001 fce8 	bl	8002094 <HAL_TIM_PWM_ConfigChannel>
 80006c4:	4603      	mov	r3, r0
 80006c6:	2b00      	cmp	r3, #0
 80006c8:	d001      	beq.n	80006ce <MX_TIM2_Init+0xb2>
  {
    Error_Handler();
 80006ca:	f000 f903 	bl	80008d4 <Error_Handler>
  }
  /* USER CODE BEGIN TIM2_Init 2 */

  /* USER CODE END TIM2_Init 2 */
  HAL_TIM_MspPostInit(&htim2);
 80006ce:	4803      	ldr	r0, [pc, #12]	@ (80006dc <MX_TIM2_Init+0xc0>)
 80006d0:	f000 f970 	bl	80009b4 <HAL_TIM_MspPostInit>

}
 80006d4:	bf00      	nop
 80006d6:	3728      	adds	r7, #40	@ 0x28
 80006d8:	46bd      	mov	sp, r7
 80006da:	bd80      	pop	{r7, pc}
 80006dc:	20000028 	.word	0x20000028

080006e0 <MX_TIM3_Init>:
  * @brief TIM3 Initialization Function
  * @param None
  * @retval None
  */
static void MX_TIM3_Init(void)
{
 80006e0:	b580      	push	{r7, lr}
 80006e2:	b08e      	sub	sp, #56	@ 0x38
 80006e4:	af00      	add	r7, sp, #0

  /* USER CODE BEGIN TIM3_Init 0 */

  /* USER CODE END TIM3_Init 0 */

  TIM_ClockConfigTypeDef sClockSourceConfig = {0};
 80006e6:	f107 0328 	add.w	r3, r7, #40	@ 0x28
 80006ea:	2200      	movs	r2, #0
 80006ec:	601a      	str	r2, [r3, #0]
 80006ee:	605a      	str	r2, [r3, #4]
 80006f0:	609a      	str	r2, [r3, #8]
 80006f2:	60da      	str	r2, [r3, #12]
  TIM_MasterConfigTypeDef sMasterConfig = {0};
 80006f4:	f107 0320 	add.w	r3, r7, #32
 80006f8:	2200      	movs	r2, #0
 80006fa:	601a      	str	r2, [r3, #0]
 80006fc:	605a      	str	r2, [r3, #4]
  TIM_OC_InitTypeDef sConfigOC = {0};
 80006fe:	1d3b      	adds	r3, r7, #4
 8000700:	2200      	movs	r2, #0
 8000702:	601a      	str	r2, [r3, #0]
 8000704:	605a      	str	r2, [r3, #4]
 8000706:	609a      	str	r2, [r3, #8]
 8000708:	60da      	str	r2, [r3, #12]
 800070a:	611a      	str	r2, [r3, #16]
 800070c:	615a      	str	r2, [r3, #20]
 800070e:	619a      	str	r2, [r3, #24]

  /* USER CODE BEGIN TIM3_Init 1 */

  /* USER CODE END TIM3_Init 1 */
  htim3.Instance = TIM3;
 8000710:	4b2c      	ldr	r3, [pc, #176]	@ (80007c4 <MX_TIM3_Init+0xe4>)
 8000712:	4a2d      	ldr	r2, [pc, #180]	@ (80007c8 <MX_TIM3_Init+0xe8>)
 8000714:	601a      	str	r2, [r3, #0]
  htim3.Init.Prescaler = 0;
 8000716:	4b2b      	ldr	r3, [pc, #172]	@ (80007c4 <MX_TIM3_Init+0xe4>)
 8000718:	2200      	movs	r2, #0
 800071a:	605a      	str	r2, [r3, #4]
  htim3.Init.CounterMode = TIM_COUNTERMODE_UP;
 800071c:	4b29      	ldr	r3, [pc, #164]	@ (80007c4 <MX_TIM3_Init+0xe4>)
 800071e:	2200      	movs	r2, #0
 8000720:	609a      	str	r2, [r3, #8]
  htim3.Init.Period = 1000;
 8000722:	4b28      	ldr	r3, [pc, #160]	@ (80007c4 <MX_TIM3_Init+0xe4>)
 8000724:	f44f 727a 	mov.w	r2, #1000	@ 0x3e8
 8000728:	60da      	str	r2, [r3, #12]
  htim3.Init.ClockDivision = TIM_CLOCKDIVISION_DIV1;
 800072a:	4b26      	ldr	r3, [pc, #152]	@ (80007c4 <MX_TIM3_Init+0xe4>)
 800072c:	2200      	movs	r2, #0
 800072e:	611a      	str	r2, [r3, #16]
  htim3.Init.AutoReloadPreload = TIM_AUTORELOAD_PRELOAD_DISABLE;
 8000730:	4b24      	ldr	r3, [pc, #144]	@ (80007c4 <MX_TIM3_Init+0xe4>)
 8000732:	2200      	movs	r2, #0
 8000734:	619a      	str	r2, [r3, #24]
  if (HAL_TIM_Base_Init(&htim3) != HAL_OK)
 8000736:	4823      	ldr	r0, [pc, #140]	@ (80007c4 <MX_TIM3_Init+0xe4>)
 8000738:	f001 fb46 	bl	8001dc8 <HAL_TIM_Base_Init>
 800073c:	4603      	mov	r3, r0
 800073e:	2b00      	cmp	r3, #0
 8000740:	d001      	beq.n	8000746 <MX_TIM3_Init+0x66>
  {
    Error_Handler();
 8000742:	f000 f8c7 	bl	80008d4 <Error_Handler>
  }
  sClockSourceConfig.ClockSource = TIM_CLOCKSOURCE_INTERNAL;
 8000746:	f44f 5380 	mov.w	r3, #4096	@ 0x1000
 800074a:	62bb      	str	r3, [r7, #40]	@ 0x28
  if (HAL_TIM_ConfigClockSource(&htim3, &sClockSourceConfig) != HAL_OK)
 800074c:	f107 0328 	add.w	r3, r7, #40	@ 0x28
 8000750:	4619      	mov	r1, r3
 8000752:	481c      	ldr	r0, [pc, #112]	@ (80007c4 <MX_TIM3_Init+0xe4>)
 8000754:	f001 fd60 	bl	8002218 <HAL_TIM_ConfigClockSource>
 8000758:	4603      	mov	r3, r0
 800075a:	2b00      	cmp	r3, #0
 800075c:	d001      	beq.n	8000762 <MX_TIM3_Init+0x82>
  {
    Error_Handler();
 800075e:	f000 f8b9 	bl	80008d4 <Error_Handler>
  }
  if (HAL_TIM_PWM_Init(&htim3) != HAL_OK)
 8000762:	4818      	ldr	r0, [pc, #96]	@ (80007c4 <MX_TIM3_Init+0xe4>)
 8000764:	f001 fb7f 	bl	8001e66 <HAL_TIM_PWM_Init>
 8000768:	4603      	mov	r3, r0
 800076a:	2b00      	cmp	r3, #0
 800076c:	d001      	beq.n	8000772 <MX_TIM3_Init+0x92>
  {
    Error_Handler();
 800076e:	f000 f8b1 	bl	80008d4 <Error_Handler>
  }
  sMasterConfig.MasterOutputTrigger = TIM_TRGO_RESET;
 8000772:	2300      	movs	r3, #0
 8000774:	623b      	str	r3, [r7, #32]
  sMasterConfig.MasterSlaveMode = TIM_MASTERSLAVEMODE_DISABLE;
 8000776:	2300      	movs	r3, #0
 8000778:	627b      	str	r3, [r7, #36]	@ 0x24
  if (HAL_TIMEx_MasterConfigSynchronization(&htim3, &sMasterConfig) != HAL_OK)
 800077a:	f107 0320 	add.w	r3, r7, #32
 800077e:	4619      	mov	r1, r3
 8000780:	4810      	ldr	r0, [pc, #64]	@ (80007c4 <MX_TIM3_Init+0xe4>)
 8000782:	f002 f92d 	bl	80029e0 <HAL_TIMEx_MasterConfigSynchronization>
 8000786:	4603      	mov	r3, r0
 8000788:	2b00      	cmp	r3, #0
 800078a:	d001      	beq.n	8000790 <MX_TIM3_Init+0xb0>
  {
    Error_Handler();
 800078c:	f000 f8a2 	bl	80008d4 <Error_Handler>
  }
  sConfigOC.OCMode = TIM_OCMODE_PWM1;
 8000790:	2360      	movs	r3, #96	@ 0x60
 8000792:	607b      	str	r3, [r7, #4]
  sConfigOC.Pulse = 0;
 8000794:	2300      	movs	r3, #0
 8000796:	60bb      	str	r3, [r7, #8]
  sConfigOC.OCPolarity = TIM_OCPOLARITY_HIGH;
 8000798:	2300      	movs	r3, #0
 800079a:	60fb      	str	r3, [r7, #12]
  sConfigOC.OCFastMode = TIM_OCFAST_DISABLE;
 800079c:	2300      	movs	r3, #0
 800079e:	617b      	str	r3, [r7, #20]
  if (HAL_TIM_PWM_ConfigChannel(&htim3, &sConfigOC, TIM_CHANNEL_2) != HAL_OK)
 80007a0:	1d3b      	adds	r3, r7, #4
 80007a2:	2204      	movs	r2, #4
 80007a4:	4619      	mov	r1, r3
 80007a6:	4807      	ldr	r0, [pc, #28]	@ (80007c4 <MX_TIM3_Init+0xe4>)
 80007a8:	f001 fc74 	bl	8002094 <HAL_TIM_PWM_ConfigChannel>
 80007ac:	4603      	mov	r3, r0
 80007ae:	2b00      	cmp	r3, #0
 80007b0:	d001      	beq.n	80007b6 <MX_TIM3_Init+0xd6>
  {
    Error_Handler();
 80007b2:	f000 f88f 	bl	80008d4 <Error_Handler>
  }
  /* USER CODE BEGIN TIM3_Init 2 */

  /* USER CODE END TIM3_Init 2 */
  HAL_TIM_MspPostInit(&htim3);
 80007b6:	4803      	ldr	r0, [pc, #12]	@ (80007c4 <MX_TIM3_Init+0xe4>)
 80007b8:	f000 f8fc 	bl	80009b4 <HAL_TIM_MspPostInit>

}
 80007bc:	bf00      	nop
 80007be:	3738      	adds	r7, #56	@ 0x38
 80007c0:	46bd      	mov	sp, r7
 80007c2:	bd80      	pop	{r7, pc}
 80007c4:	20000070 	.word	0x20000070
 80007c8:	40000400 	.word	0x40000400

080007cc <MX_USART2_UART_Init>:
  * @brief USART2 Initialization Function
  * @param None
  * @retval None
  */
static void MX_USART2_UART_Init(void)
{
 80007cc:	b580      	push	{r7, lr}
 80007ce:	af00      	add	r7, sp, #0
  /* USER CODE END USART2_Init 0 */

  /* USER CODE BEGIN USART2_Init 1 */

  /* USER CODE END USART2_Init 1 */
  huart2.Instance = USART2;
 80007d0:	4b11      	ldr	r3, [pc, #68]	@ (8000818 <MX_USART2_UART_Init+0x4c>)
 80007d2:	4a12      	ldr	r2, [pc, #72]	@ (800081c <MX_USART2_UART_Init+0x50>)
 80007d4:	601a      	str	r2, [r3, #0]
  huart2.Init.BaudRate = 115200;
 80007d6:	4b10      	ldr	r3, [pc, #64]	@ (8000818 <MX_USART2_UART_Init+0x4c>)
 80007d8:	f44f 32e1 	mov.w	r2, #115200	@ 0x1c200
 80007dc:	605a      	str	r2, [r3, #4]
  huart2.Init.WordLength = UART_WORDLENGTH_8B;
 80007de:	4b0e      	ldr	r3, [pc, #56]	@ (8000818 <MX_USART2_UART_Init+0x4c>)
 80007e0:	2200      	movs	r2, #0
 80007e2:	609a      	str	r2, [r3, #8]
  huart2.Init.StopBits = UART_STOPBITS_1;
 80007e4:	4b0c      	ldr	r3, [pc, #48]	@ (8000818 <MX_USART2_UART_Init+0x4c>)
 80007e6:	2200      	movs	r2, #0
 80007e8:	60da      	str	r2, [r3, #12]
  huart2.Init.Parity = UART_PARITY_NONE;
 80007ea:	4b0b      	ldr	r3, [pc, #44]	@ (8000818 <MX_USART2_UART_Init+0x4c>)
 80007ec:	2200      	movs	r2, #0
 80007ee:	611a      	str	r2, [r3, #16]
  huart2.Init.Mode = UART_MODE_TX_RX;
 80007f0:	4b09      	ldr	r3, [pc, #36]	@ (8000818 <MX_USART2_UART_Init+0x4c>)
 80007f2:	220c      	movs	r2, #12
 80007f4:	615a      	str	r2, [r3, #20]
  huart2.Init.HwFlowCtl = UART_HWCONTROL_NONE;
 80007f6:	4b08      	ldr	r3, [pc, #32]	@ (8000818 <MX_USART2_UART_Init+0x4c>)
 80007f8:	2200      	movs	r2, #0
 80007fa:	619a      	str	r2, [r3, #24]
  huart2.Init.OverSampling = UART_OVERSAMPLING_16;
 80007fc:	4b06      	ldr	r3, [pc, #24]	@ (8000818 <MX_USART2_UART_Init+0x4c>)
 80007fe:	2200      	movs	r2, #0
 8000800:	61da      	str	r2, [r3, #28]
  if (HAL_UART_Init(&huart2) != HAL_OK)
 8000802:	4805      	ldr	r0, [pc, #20]	@ (8000818 <MX_USART2_UART_Init+0x4c>)
 8000804:	f002 f968 	bl	8002ad8 <HAL_UART_Init>
 8000808:	4603      	mov	r3, r0
 800080a:	2b00      	cmp	r3, #0
 800080c:	d001      	beq.n	8000812 <MX_USART2_UART_Init+0x46>
  {
    Error_Handler();
 800080e:	f000 f861 	bl	80008d4 <Error_Handler>
  }
  /* USER CODE BEGIN USART2_Init 2 */

  /* USER CODE END USART2_Init 2 */

}
 8000812:	bf00      	nop
 8000814:	bd80      	pop	{r7, pc}
 8000816:	bf00      	nop
 8000818:	200000b8 	.word	0x200000b8
 800081c:	40004400 	.word	0x40004400

08000820 <MX_GPIO_Init>:
  * @brief GPIO Initialization Function
  * @param None
  * @retval None
  */
static void MX_GPIO_Init(void)
{
 8000820:	b580      	push	{r7, lr}
 8000822:	b08a      	sub	sp, #40	@ 0x28
 8000824:	af00      	add	r7, sp, #0
  GPIO_InitTypeDef GPIO_InitStruct = {0};
 8000826:	f107 0314 	add.w	r3, r7, #20
 800082a:	2200      	movs	r2, #0
 800082c:	601a      	str	r2, [r3, #0]
 800082e:	605a      	str	r2, [r3, #4]
 8000830:	609a      	str	r2, [r3, #8]
 8000832:	60da      	str	r2, [r3, #12]
 8000834:	611a      	str	r2, [r3, #16]
/* USER CODE BEGIN MX_GPIO_Init_1 */
/* USER CODE END MX_GPIO_Init_1 */

  /* GPIO Ports Clock Enable */
  __HAL_RCC_GPIOC_CLK_ENABLE();
 8000836:	2300      	movs	r3, #0
 8000838:	613b      	str	r3, [r7, #16]
 800083a:	4b24      	ldr	r3, [pc, #144]	@ (80008cc <MX_GPIO_Init+0xac>)
 800083c:	6b1b      	ldr	r3, [r3, #48]	@ 0x30
 800083e:	4a23      	ldr	r2, [pc, #140]	@ (80008cc <MX_GPIO_Init+0xac>)
 8000840:	f043 0304 	orr.w	r3, r3, #4
 8000844:	6313      	str	r3, [r2, #48]	@ 0x30
 8000846:	4b21      	ldr	r3, [pc, #132]	@ (80008cc <MX_GPIO_Init+0xac>)
 8000848:	6b1b      	ldr	r3, [r3, #48]	@ 0x30
 800084a:	f003 0304 	and.w	r3, r3, #4
 800084e:	613b      	str	r3, [r7, #16]
 8000850:	693b      	ldr	r3, [r7, #16]
  __HAL_RCC_GPIOH_CLK_ENABLE();
 8000852:	2300      	movs	r3, #0
 8000854:	60fb      	str	r3, [r7, #12]
 8000856:	4b1d      	ldr	r3, [pc, #116]	@ (80008cc <MX_GPIO_Init+0xac>)
 8000858:	6b1b      	ldr	r3, [r3, #48]	@ 0x30
 800085a:	4a1c      	ldr	r2, [pc, #112]	@ (80008cc <MX_GPIO_Init+0xac>)
 800085c:	f043 0380 	orr.w	r3, r3, #128	@ 0x80
 8000860:	6313      	str	r3, [r2, #48]	@ 0x30
 8000862:	4b1a      	ldr	r3, [pc, #104]	@ (80008cc <MX_GPIO_Init+0xac>)
 8000864:	6b1b      	ldr	r3, [r3, #48]	@ 0x30
 8000866:	f003 0380 	and.w	r3, r3, #128	@ 0x80
 800086a:	60fb      	str	r3, [r7, #12]
 800086c:	68fb      	ldr	r3, [r7, #12]
  __HAL_RCC_GPIOA_CLK_ENABLE();
 800086e:	2300      	movs	r3, #0
 8000870:	60bb      	str	r3, [r7, #8]
 8000872:	4b16      	ldr	r3, [pc, #88]	@ (80008cc <MX_GPIO_Init+0xac>)
 8000874:	6b1b      	ldr	r3, [r3, #48]	@ 0x30
 8000876:	4a15      	ldr	r2, [pc, #84]	@ (80008cc <MX_GPIO_Init+0xac>)
 8000878:	f043 0301 	orr.w	r3, r3, #1
 800087c:	6313      	str	r3, [r2, #48]	@ 0x30
 800087e:	4b13      	ldr	r3, [pc, #76]	@ (80008cc <MX_GPIO_Init+0xac>)
 8000880:	6b1b      	ldr	r3, [r3, #48]	@ 0x30
 8000882:	f003 0301 	and.w	r3, r3, #1
 8000886:	60bb      	str	r3, [r7, #8]
 8000888:	68bb      	ldr	r3, [r7, #8]
  __HAL_RCC_GPIOB_CLK_ENABLE();
 800088a:	2300      	movs	r3, #0
 800088c:	607b      	str	r3, [r7, #4]
 800088e:	4b0f      	ldr	r3, [pc, #60]	@ (80008cc <MX_GPIO_Init+0xac>)
 8000890:	6b1b      	ldr	r3, [r3, #48]	@ 0x30
 8000892:	4a0e      	ldr	r2, [pc, #56]	@ (80008cc <MX_GPIO_Init+0xac>)
 8000894:	f043 0302 	orr.w	r3, r3, #2
 8000898:	6313      	str	r3, [r2, #48]	@ 0x30
 800089a:	4b0c      	ldr	r3, [pc, #48]	@ (80008cc <MX_GPIO_Init+0xac>)
 800089c:	6b1b      	ldr	r3, [r3, #48]	@ 0x30
 800089e:	f003 0302 	and.w	r3, r3, #2
 80008a2:	607b      	str	r3, [r7, #4]
 80008a4:	687b      	ldr	r3, [r7, #4]

  /*Configure GPIO pin : B1_Pin */
  GPIO_InitStruct.Pin = B1_Pin;
 80008a6:	f44f 5300 	mov.w	r3, #8192	@ 0x2000
 80008aa:	617b      	str	r3, [r7, #20]
  GPIO_InitStruct.Mode = GPIO_MODE_IT_FALLING;
 80008ac:	f44f 1304 	mov.w	r3, #2162688	@ 0x210000
 80008b0:	61bb      	str	r3, [r7, #24]
  GPIO_InitStruct.Pull = GPIO_NOPULL;
 80008b2:	2300      	movs	r3, #0
 80008b4:	61fb      	str	r3, [r7, #28]
  HAL_GPIO_Init(B1_GPIO_Port, &GPIO_InitStruct);
 80008b6:	f107 0314 	add.w	r3, r7, #20
 80008ba:	4619      	mov	r1, r3
 80008bc:	4804      	ldr	r0, [pc, #16]	@ (80008d0 <MX_GPIO_Init+0xb0>)
 80008be:	f000 fb07 	bl	8000ed0 <HAL_GPIO_Init>

/* USER CODE BEGIN MX_GPIO_Init_2 */
/* USER CODE END MX_GPIO_Init_2 */
}
 80008c2:	bf00      	nop
 80008c4:	3728      	adds	r7, #40	@ 0x28
 80008c6:	46bd      	mov	sp, r7
 80008c8:	bd80      	pop	{r7, pc}
 80008ca:	bf00      	nop
 80008cc:	40023800 	.word	0x40023800
 80008d0:	40020800 	.word	0x40020800

080008d4 <Error_Handler>:
/**
  * @brief  This function is executed in case of error occurrence.
  * @retval None
  */
void Error_Handler(void)
{
 80008d4:	b480      	push	{r7}
 80008d6:	af00      	add	r7, sp, #0
  \details Disables IRQ interrupts by setting special-purpose register PRIMASK.
           Can only be executed in Privileged modes.
 */
__STATIC_FORCEINLINE void __disable_irq(void)
{
  __ASM volatile ("cpsid i" : : : "memory");
 80008d8:	b672      	cpsid	i
}
 80008da:	bf00      	nop
  /* USER CODE BEGIN Error_Handler_Debug */
	/* User can add his own implementation to report the HAL error return state */
	__disable_irq();
	while (1) {
 80008dc:	bf00      	nop
 80008de:	e7fd      	b.n	80008dc <Error_Handler+0x8>

080008e0 <HAL_MspInit>:
void HAL_TIM_MspPostInit(TIM_HandleTypeDef *htim);
                                        /**
  * Initializes the Global MSP.
  */
void HAL_MspInit(void)
{
 80008e0:	b580      	push	{r7, lr}
 80008e2:	b082      	sub	sp, #8
 80008e4:	af00      	add	r7, sp, #0

  /* USER CODE BEGIN MspInit 0 */

  /* USER CODE END MspInit 0 */

  __HAL_RCC_SYSCFG_CLK_ENABLE();
 80008e6:	2300      	movs	r3, #0
 80008e8:	607b      	str	r3, [r7, #4]
 80008ea:	4b10      	ldr	r3, [pc, #64]	@ (800092c <HAL_MspInit+0x4c>)
 80008ec:	6c5b      	ldr	r3, [r3, #68]	@ 0x44
 80008ee:	4a0f      	ldr	r2, [pc, #60]	@ (800092c <HAL_MspInit+0x4c>)
 80008f0:	f443 4380 	orr.w	r3, r3, #16384	@ 0x4000
 80008f4:	6453      	str	r3, [r2, #68]	@ 0x44
 80008f6:	4b0d      	ldr	r3, [pc, #52]	@ (800092c <HAL_MspInit+0x4c>)
 80008f8:	6c5b      	ldr	r3, [r3, #68]	@ 0x44
 80008fa:	f403 4380 	and.w	r3, r3, #16384	@ 0x4000
 80008fe:	607b      	str	r3, [r7, #4]
 8000900:	687b      	ldr	r3, [r7, #4]
  __HAL_RCC_PWR_CLK_ENABLE();
 8000902:	2300      	movs	r3, #0
 8000904:	603b      	str	r3, [r7, #0]
 8000906:	4b09      	ldr	r3, [pc, #36]	@ (800092c <HAL_MspInit+0x4c>)
 8000908:	6c1b      	ldr	r3, [r3, #64]	@ 0x40
 800090a:	4a08      	ldr	r2, [pc, #32]	@ (800092c <HAL_MspInit+0x4c>)
 800090c:	f043 5380 	orr.w	r3, r3, #268435456	@ 0x10000000
 8000910:	6413      	str	r3, [r2, #64]	@ 0x40
 8000912:	4b06      	ldr	r3, [pc, #24]	@ (800092c <HAL_MspInit+0x4c>)
 8000914:	6c1b      	ldr	r3, [r3, #64]	@ 0x40
 8000916:	f003 5380 	and.w	r3, r3, #268435456	@ 0x10000000
 800091a:	603b      	str	r3, [r7, #0]
 800091c:	683b      	ldr	r3, [r7, #0]

  HAL_NVIC_SetPriorityGrouping(NVIC_PRIORITYGROUP_0);
 800091e:	2007      	movs	r0, #7
 8000920:	f000 faa2 	bl	8000e68 <HAL_NVIC_SetPriorityGrouping>
  /* System interrupt init*/

  /* USER CODE BEGIN MspInit 1 */

  /* USER CODE END MspInit 1 */
}
 8000924:	bf00      	nop
 8000926:	3708      	adds	r7, #8
 8000928:	46bd      	mov	sp, r7
 800092a:	bd80      	pop	{r7, pc}
 800092c:	40023800 	.word	0x40023800

08000930 <HAL_TIM_PWM_MspInit>:
* This function configures the hardware resources used in this example
* @param htim_pwm: TIM_PWM handle pointer
* @retval None
*/
void HAL_TIM_PWM_MspInit(TIM_HandleTypeDef* htim_pwm)
{
 8000930:	b480      	push	{r7}
 8000932:	b085      	sub	sp, #20
 8000934:	af00      	add	r7, sp, #0
 8000936:	6078      	str	r0, [r7, #4]
  if(htim_pwm->Instance==TIM2)
 8000938:	687b      	ldr	r3, [r7, #4]
 800093a:	681b      	ldr	r3, [r3, #0]
 800093c:	f1b3 4f80 	cmp.w	r3, #1073741824	@ 0x40000000
 8000940:	d10d      	bne.n	800095e <HAL_TIM_PWM_MspInit+0x2e>
  {
  /* USER CODE BEGIN TIM2_MspInit 0 */

  /* USER CODE END TIM2_MspInit 0 */
    /* Peripheral clock enable */
    __HAL_RCC_TIM2_CLK_ENABLE();
 8000942:	2300      	movs	r3, #0
 8000944:	60fb      	str	r3, [r7, #12]
 8000946:	4b09      	ldr	r3, [pc, #36]	@ (800096c <HAL_TIM_PWM_MspInit+0x3c>)
 8000948:	6c1b      	ldr	r3, [r3, #64]	@ 0x40
 800094a:	4a08      	ldr	r2, [pc, #32]	@ (800096c <HAL_TIM_PWM_MspInit+0x3c>)
 800094c:	f043 0301 	orr.w	r3, r3, #1
 8000950:	6413      	str	r3, [r2, #64]	@ 0x40
 8000952:	4b06      	ldr	r3, [pc, #24]	@ (800096c <HAL_TIM_PWM_MspInit+0x3c>)
 8000954:	6c1b      	ldr	r3, [r3, #64]	@ 0x40
 8000956:	f003 0301 	and.w	r3, r3, #1
 800095a:	60fb      	str	r3, [r7, #12]
 800095c:	68fb      	ldr	r3, [r7, #12]

  /* USER CODE END TIM2_MspInit 1 */

  }

}
 800095e:	bf00      	nop
 8000960:	3714      	adds	r7, #20
 8000962:	46bd      	mov	sp, r7
 8000964:	f85d 7b04 	ldr.w	r7, [sp], #4
 8000968:	4770      	bx	lr
 800096a:	bf00      	nop
 800096c:	40023800 	.word	0x40023800

08000970 <HAL_TIM_Base_MspInit>:
* This function configures the hardware resources used in this example
* @param htim_base: TIM_Base handle pointer
* @retval None
*/
void HAL_TIM_Base_MspInit(TIM_HandleTypeDef* htim_base)
{
 8000970:	b480      	push	{r7}
 8000972:	b085      	sub	sp, #20
 8000974:	af00      	add	r7, sp, #0
 8000976:	6078      	str	r0, [r7, #4]
  if(htim_base->Instance==TIM3)
 8000978:	687b      	ldr	r3, [r7, #4]
 800097a:	681b      	ldr	r3, [r3, #0]
 800097c:	4a0b      	ldr	r2, [pc, #44]	@ (80009ac <HAL_TIM_Base_MspInit+0x3c>)
 800097e:	4293      	cmp	r3, r2
 8000980:	d10d      	bne.n	800099e <HAL_TIM_Base_MspInit+0x2e>
  {
  /* USER CODE BEGIN TIM3_MspInit 0 */

  /* USER CODE END TIM3_MspInit 0 */
    /* Peripheral clock enable */
    __HAL_RCC_TIM3_CLK_ENABLE();
 8000982:	2300      	movs	r3, #0
 8000984:	60fb      	str	r3, [r7, #12]
 8000986:	4b0a      	ldr	r3, [pc, #40]	@ (80009b0 <HAL_TIM_Base_MspInit+0x40>)
 8000988:	6c1b      	ldr	r3, [r3, #64]	@ 0x40
 800098a:	4a09      	ldr	r2, [pc, #36]	@ (80009b0 <HAL_TIM_Base_MspInit+0x40>)
 800098c:	f043 0302 	orr.w	r3, r3, #2
 8000990:	6413      	str	r3, [r2, #64]	@ 0x40
 8000992:	4b07      	ldr	r3, [pc, #28]	@ (80009b0 <HAL_TIM_Base_MspInit+0x40>)
 8000994:	6c1b      	ldr	r3, [r3, #64]	@ 0x40
 8000996:	f003 0302 	and.w	r3, r3, #2
 800099a:	60fb      	str	r3, [r7, #12]
 800099c:	68fb      	ldr	r3, [r7, #12]

  /* USER CODE END TIM3_MspInit 1 */

  }

}
 800099e:	bf00      	nop
 80009a0:	3714      	adds	r7, #20
 80009a2:	46bd      	mov	sp, r7
 80009a4:	f85d 7b04 	ldr.w	r7, [sp], #4
 80009a8:	4770      	bx	lr
 80009aa:	bf00      	nop
 80009ac:	40000400 	.word	0x40000400
 80009b0:	40023800 	.word	0x40023800

080009b4 <HAL_TIM_MspPostInit>:

void HAL_TIM_MspPostInit(TIM_HandleTypeDef* htim)
{
 80009b4:	b580      	push	{r7, lr}
 80009b6:	b08a      	sub	sp, #40	@ 0x28
 80009b8:	af00      	add	r7, sp, #0
 80009ba:	6078      	str	r0, [r7, #4]
  GPIO_InitTypeDef GPIO_InitStruct = {0};
 80009bc:	f107 0314 	add.w	r3, r7, #20
 80009c0:	2200      	movs	r2, #0
 80009c2:	601a      	str	r2, [r3, #0]
 80009c4:	605a      	str	r2, [r3, #4]
 80009c6:	609a      	str	r2, [r3, #8]
 80009c8:	60da      	str	r2, [r3, #12]
 80009ca:	611a      	str	r2, [r3, #16]
  if(htim->Instance==TIM2)
 80009cc:	687b      	ldr	r3, [r7, #4]
 80009ce:	681b      	ldr	r3, [r3, #0]
 80009d0:	f1b3 4f80 	cmp.w	r3, #1073741824	@ 0x40000000
 80009d4:	d11e      	bne.n	8000a14 <HAL_TIM_MspPostInit+0x60>
  {
  /* USER CODE BEGIN TIM2_MspPostInit 0 */

  /* USER CODE END TIM2_MspPostInit 0 */
    __HAL_RCC_GPIOA_CLK_ENABLE();
 80009d6:	2300      	movs	r3, #0
 80009d8:	613b      	str	r3, [r7, #16]
 80009da:	4b22      	ldr	r3, [pc, #136]	@ (8000a64 <HAL_TIM_MspPostInit+0xb0>)
 80009dc:	6b1b      	ldr	r3, [r3, #48]	@ 0x30
 80009de:	4a21      	ldr	r2, [pc, #132]	@ (8000a64 <HAL_TIM_MspPostInit+0xb0>)
 80009e0:	f043 0301 	orr.w	r3, r3, #1
 80009e4:	6313      	str	r3, [r2, #48]	@ 0x30
 80009e6:	4b1f      	ldr	r3, [pc, #124]	@ (8000a64 <HAL_TIM_MspPostInit+0xb0>)
 80009e8:	6b1b      	ldr	r3, [r3, #48]	@ 0x30
 80009ea:	f003 0301 	and.w	r3, r3, #1
 80009ee:	613b      	str	r3, [r7, #16]
 80009f0:	693b      	ldr	r3, [r7, #16]
    /**TIM2 GPIO Configuration
    PA1     ------> TIM2_CH2
    PA5     ------> TIM2_CH1
    */
    GPIO_InitStruct.Pin = GPIO_PIN_1|GPIO_PIN_5;
 80009f2:	2322      	movs	r3, #34	@ 0x22
 80009f4:	617b      	str	r3, [r7, #20]
    GPIO_InitStruct.Mode = GPIO_MODE_AF_PP;
 80009f6:	2302      	movs	r3, #2
 80009f8:	61bb      	str	r3, [r7, #24]
    GPIO_InitStruct.Pull = GPIO_NOPULL;
 80009fa:	2300      	movs	r3, #0
 80009fc:	61fb      	str	r3, [r7, #28]
    GPIO_InitStruct.Speed = GPIO_SPEED_FREQ_LOW;
 80009fe:	2300      	movs	r3, #0
 8000a00:	623b      	str	r3, [r7, #32]
    GPIO_InitStruct.Alternate = GPIO_AF1_TIM2;
 8000a02:	2301      	movs	r3, #1
 8000a04:	627b      	str	r3, [r7, #36]	@ 0x24
    HAL_GPIO_Init(GPIOA, &GPIO_InitStruct);
 8000a06:	f107 0314 	add.w	r3, r7, #20
 8000a0a:	4619      	mov	r1, r3
 8000a0c:	4816      	ldr	r0, [pc, #88]	@ (8000a68 <HAL_TIM_MspPostInit+0xb4>)
 8000a0e:	f000 fa5f 	bl	8000ed0 <HAL_GPIO_Init>
  /* USER CODE BEGIN TIM3_MspPostInit 1 */

  /* USER CODE END TIM3_MspPostInit 1 */
  }

}
 8000a12:	e022      	b.n	8000a5a <HAL_TIM_MspPostInit+0xa6>
  else if(htim->Instance==TIM3)
 8000a14:	687b      	ldr	r3, [r7, #4]
 8000a16:	681b      	ldr	r3, [r3, #0]
 8000a18:	4a14      	ldr	r2, [pc, #80]	@ (8000a6c <HAL_TIM_MspPostInit+0xb8>)
 8000a1a:	4293      	cmp	r3, r2
 8000a1c:	d11d      	bne.n	8000a5a <HAL_TIM_MspPostInit+0xa6>
    __HAL_RCC_GPIOA_CLK_ENABLE();
 8000a1e:	2300      	movs	r3, #0
 8000a20:	60fb      	str	r3, [r7, #12]
 8000a22:	4b10      	ldr	r3, [pc, #64]	@ (8000a64 <HAL_TIM_MspPostInit+0xb0>)
 8000a24:	6b1b      	ldr	r3, [r3, #48]	@ 0x30
 8000a26:	4a0f      	ldr	r2, [pc, #60]	@ (8000a64 <HAL_TIM_MspPostInit+0xb0>)
 8000a28:	f043 0301 	orr.w	r3, r3, #1
 8000a2c:	6313      	str	r3, [r2, #48]	@ 0x30
 8000a2e:	4b0d      	ldr	r3, [pc, #52]	@ (8000a64 <HAL_TIM_MspPostInit+0xb0>)
 8000a30:	6b1b      	ldr	r3, [r3, #48]	@ 0x30
 8000a32:	f003 0301 	and.w	r3, r3, #1
 8000a36:	60fb      	str	r3, [r7, #12]
 8000a38:	68fb      	ldr	r3, [r7, #12]
    GPIO_InitStruct.Pin = GPIO_PIN_7;
 8000a3a:	2380      	movs	r3, #128	@ 0x80
 8000a3c:	617b      	str	r3, [r7, #20]
    GPIO_InitStruct.Mode = GPIO_MODE_AF_PP;
 8000a3e:	2302      	movs	r3, #2
 8000a40:	61bb      	str	r3, [r7, #24]
    GPIO_InitStruct.Pull = GPIO_NOPULL;
 8000a42:	2300      	movs	r3, #0
 8000a44:	61fb      	str	r3, [r7, #28]
    GPIO_InitStruct.Speed = GPIO_SPEED_FREQ_LOW;
 8000a46:	2300      	movs	r3, #0
 8000a48:	623b      	str	r3, [r7, #32]
    GPIO_InitStruct.Alternate = GPIO_AF2_TIM3;
 8000a4a:	2302      	movs	r3, #2
 8000a4c:	627b      	str	r3, [r7, #36]	@ 0x24
    HAL_GPIO_Init(GPIOA, &GPIO_InitStruct);
 8000a4e:	f107 0314 	add.w	r3, r7, #20
 8000a52:	4619      	mov	r1, r3
 8000a54:	4804      	ldr	r0, [pc, #16]	@ (8000a68 <HAL_TIM_MspPostInit+0xb4>)
 8000a56:	f000 fa3b 	bl	8000ed0 <HAL_GPIO_Init>
}
 8000a5a:	bf00      	nop
 8000a5c:	3728      	adds	r7, #40	@ 0x28
 8000a5e:	46bd      	mov	sp, r7
 8000a60:	bd80      	pop	{r7, pc}
 8000a62:	bf00      	nop
 8000a64:	40023800 	.word	0x40023800
 8000a68:	40020000 	.word	0x40020000
 8000a6c:	40000400 	.word	0x40000400

08000a70 <HAL_UART_MspInit>:
* This function configures the hardware resources used in this example
* @param huart: UART handle pointer
* @retval None
*/
void HAL_UART_MspInit(UART_HandleTypeDef* huart)
{
 8000a70:	b580      	push	{r7, lr}
 8000a72:	b08a      	sub	sp, #40	@ 0x28
 8000a74:	af00      	add	r7, sp, #0
 8000a76:	6078      	str	r0, [r7, #4]
  GPIO_InitTypeDef GPIO_InitStruct = {0};
 8000a78:	f107 0314 	add.w	r3, r7, #20
 8000a7c:	2200      	movs	r2, #0
 8000a7e:	601a      	str	r2, [r3, #0]
 8000a80:	605a      	str	r2, [r3, #4]
 8000a82:	609a      	str	r2, [r3, #8]
 8000a84:	60da      	str	r2, [r3, #12]
 8000a86:	611a      	str	r2, [r3, #16]
  if(huart->Instance==USART2)
 8000a88:	687b      	ldr	r3, [r7, #4]
 8000a8a:	681b      	ldr	r3, [r3, #0]
 8000a8c:	4a19      	ldr	r2, [pc, #100]	@ (8000af4 <HAL_UART_MspInit+0x84>)
 8000a8e:	4293      	cmp	r3, r2
 8000a90:	d12b      	bne.n	8000aea <HAL_UART_MspInit+0x7a>
  {
  /* USER CODE BEGIN USART2_MspInit 0 */

  /* USER CODE END USART2_MspInit 0 */
    /* Peripheral clock enable */
    __HAL_RCC_USART2_CLK_ENABLE();
 8000a92:	2300      	movs	r3, #0
 8000a94:	613b      	str	r3, [r7, #16]
 8000a96:	4b18      	ldr	r3, [pc, #96]	@ (8000af8 <HAL_UART_MspInit+0x88>)
 8000a98:	6c1b      	ldr	r3, [r3, #64]	@ 0x40
 8000a9a:	4a17      	ldr	r2, [pc, #92]	@ (8000af8 <HAL_UART_MspInit+0x88>)
 8000a9c:	f443 3300 	orr.w	r3, r3, #131072	@ 0x20000
 8000aa0:	6413      	str	r3, [r2, #64]	@ 0x40
 8000aa2:	4b15      	ldr	r3, [pc, #84]	@ (8000af8 <HAL_UART_MspInit+0x88>)
 8000aa4:	6c1b      	ldr	r3, [r3, #64]	@ 0x40
 8000aa6:	f403 3300 	and.w	r3, r3, #131072	@ 0x20000
 8000aaa:	613b      	str	r3, [r7, #16]
 8000aac:	693b      	ldr	r3, [r7, #16]

    __HAL_RCC_GPIOA_CLK_ENABLE();
 8000aae:	2300      	movs	r3, #0
 8000ab0:	60fb      	str	r3, [r7, #12]
 8000ab2:	4b11      	ldr	r3, [pc, #68]	@ (8000af8 <HAL_UART_MspInit+0x88>)
 8000ab4:	6b1b      	ldr	r3, [r3, #48]	@ 0x30
 8000ab6:	4a10      	ldr	r2, [pc, #64]	@ (8000af8 <HAL_UART_MspInit+0x88>)
 8000ab8:	f043 0301 	orr.w	r3, r3, #1
 8000abc:	6313      	str	r3, [r2, #48]	@ 0x30
 8000abe:	4b0e      	ldr	r3, [pc, #56]	@ (8000af8 <HAL_UART_MspInit+0x88>)
 8000ac0:	6b1b      	ldr	r3, [r3, #48]	@ 0x30
 8000ac2:	f003 0301 	and.w	r3, r3, #1
 8000ac6:	60fb      	str	r3, [r7, #12]
 8000ac8:	68fb      	ldr	r3, [r7, #12]
    /**USART2 GPIO Configuration
    PA2     ------> USART2_TX
    PA3     ------> USART2_RX
    */
    GPIO_InitStruct.Pin = USART_TX_Pin|USART_RX_Pin;
 8000aca:	230c      	movs	r3, #12
 8000acc:	617b      	str	r3, [r7, #20]
    GPIO_InitStruct.Mode = GPIO_MODE_AF_PP;
 8000ace:	2302      	movs	r3, #2
 8000ad0:	61bb      	str	r3, [r7, #24]
    GPIO_InitStruct.Pull = GPIO_NOPULL;
 8000ad2:	2300      	movs	r3, #0
 8000ad4:	61fb      	str	r3, [r7, #28]
    GPIO_InitStruct.Speed = GPIO_SPEED_FREQ_VERY_HIGH;
 8000ad6:	2303      	movs	r3, #3
 8000ad8:	623b      	str	r3, [r7, #32]
    GPIO_InitStruct.Alternate = GPIO_AF7_USART2;
 8000ada:	2307      	movs	r3, #7
 8000adc:	627b      	str	r3, [r7, #36]	@ 0x24
    HAL_GPIO_Init(GPIOA, &GPIO_InitStruct);
 8000ade:	f107 0314 	add.w	r3, r7, #20
 8000ae2:	4619      	mov	r1, r3
 8000ae4:	4805      	ldr	r0, [pc, #20]	@ (8000afc <HAL_UART_MspInit+0x8c>)
 8000ae6:	f000 f9f3 	bl	8000ed0 <HAL_GPIO_Init>

  /* USER CODE END USART2_MspInit 1 */

  }

}
 8000aea:	bf00      	nop
 8000aec:	3728      	adds	r7, #40	@ 0x28
 8000aee:	46bd      	mov	sp, r7
 8000af0:	bd80      	pop	{r7, pc}
 8000af2:	bf00      	nop
 8000af4:	40004400 	.word	0x40004400
 8000af8:	40023800 	.word	0x40023800
 8000afc:	40020000 	.word	0x40020000

08000b00 <NMI_Handler>:
/******************************************************************************/
/**
  * @brief This function handles Non maskable interrupt.
  */
void NMI_Handler(void)
{
 8000b00:	b480      	push	{r7}
 8000b02:	af00      	add	r7, sp, #0
  /* USER CODE BEGIN NonMaskableInt_IRQn 0 */

  /* USER CODE END NonMaskableInt_IRQn 0 */
  /* USER CODE BEGIN NonMaskableInt_IRQn 1 */
   while (1)
 8000b04:	bf00      	nop
 8000b06:	e7fd      	b.n	8000b04 <NMI_Handler+0x4>

08000b08 <HardFault_Handler>:

/**
  * @brief This function handles Hard fault interrupt.
  */
void HardFault_Handler(void)
{
 8000b08:	b480      	push	{r7}
 8000b0a:	af00      	add	r7, sp, #0
  /* USER CODE BEGIN HardFault_IRQn 0 */

  /* USER CODE END HardFault_IRQn 0 */
  while (1)
 8000b0c:	bf00      	nop
 8000b0e:	e7fd      	b.n	8000b0c <HardFault_Handler+0x4>

08000b10 <MemManage_Handler>:

/**
  * @brief This function handles Memory management fault.
  */
void MemManage_Handler(void)
{
 8000b10:	b480      	push	{r7}
 8000b12:	af00      	add	r7, sp, #0
  /* USER CODE BEGIN MemoryManagement_IRQn 0 */

  /* USER CODE END MemoryManagement_IRQn 0 */
  while (1)
 8000b14:	bf00      	nop
 8000b16:	e7fd      	b.n	8000b14 <MemManage_Handler+0x4>

08000b18 <BusFault_Handler>:

/**
  * @brief This function handles Pre-fetch fault, memory access fault.
  */
void BusFault_Handler(void)
{
 8000b18:	b480      	push	{r7}
 8000b1a:	af00      	add	r7, sp, #0
  /* USER CODE BEGIN BusFault_IRQn 0 */

  /* USER CODE END BusFault_IRQn 0 */
  while (1)
 8000b1c:	bf00      	nop
 8000b1e:	e7fd      	b.n	8000b1c <BusFault_Handler+0x4>

08000b20 <UsageFault_Handler>:

/**
  * @brief This function handles Undefined instruction or illegal state.
  */
void UsageFault_Handler(void)
{
 8000b20:	b480      	push	{r7}
 8000b22:	af00      	add	r7, sp, #0
  /* USER CODE BEGIN UsageFault_IRQn 0 */

  /* USER CODE END UsageFault_IRQn 0 */
  while (1)
 8000b24:	bf00      	nop
 8000b26:	e7fd      	b.n	8000b24 <UsageFault_Handler+0x4>

08000b28 <SVC_Handler>:

/**
  * @brief This function handles System service call via SWI instruction.
  */
void SVC_Handler(void)
{
 8000b28:	b480      	push	{r7}
 8000b2a:	af00      	add	r7, sp, #0

  /* USER CODE END SVCall_IRQn 0 */
  /* USER CODE BEGIN SVCall_IRQn 1 */

  /* USER CODE END SVCall_IRQn 1 */
}
 8000b2c:	bf00      	nop
 8000b2e:	46bd      	mov	sp, r7
 8000b30:	f85d 7b04 	ldr.w	r7, [sp], #4
 8000b34:	4770      	bx	lr

08000b36 <DebugMon_Handler>:

/**
  * @brief This function handles Debug monitor.
  */
void DebugMon_Handler(void)
{
 8000b36:	b480      	push	{r7}
 8000b38:	af00      	add	r7, sp, #0

  /* USER CODE END DebugMonitor_IRQn 0 */
  /* USER CODE BEGIN DebugMonitor_IRQn 1 */

  /* USER CODE END DebugMonitor_IRQn 1 */
}
 8000b3a:	bf00      	nop
 8000b3c:	46bd      	mov	sp, r7
 8000b3e:	f85d 7b04 	ldr.w	r7, [sp], #4
 8000b42:	4770      	bx	lr

08000b44 <PendSV_Handler>:

/**
  * @brief This function handles Pendable request for system service.
  */
void PendSV_Handler(void)
{
 8000b44:	b480      	push	{r7}
 8000b46:	af00      	add	r7, sp, #0

  /* USER CODE END PendSV_IRQn 0 */
  /* USER CODE BEGIN PendSV_IRQn 1 */

  /* USER CODE END PendSV_IRQn 1 */
}
 8000b48:	bf00      	nop
 8000b4a:	46bd      	mov	sp, r7
 8000b4c:	f85d 7b04 	ldr.w	r7, [sp], #4
 8000b50:	4770      	bx	lr

08000b52 <SysTick_Handler>:

/**
  * @brief This function handles System tick timer.
  */
void SysTick_Handler(void)
{
 8000b52:	b580      	push	{r7, lr}
 8000b54:	af00      	add	r7, sp, #0
  /* USER CODE BEGIN SysTick_IRQn 0 */

  /* USER CODE END SysTick_IRQn 0 */
  HAL_IncTick();
 8000b56:	f000 f891 	bl	8000c7c <HAL_IncTick>
  /* USER CODE BEGIN SysTick_IRQn 1 */

  /* USER CODE END SysTick_IRQn 1 */
}
 8000b5a:	bf00      	nop
 8000b5c:	bd80      	pop	{r7, pc}
	...

08000b60 <SystemInit>:
  *         configuration.
  * @param  None
  * @retval None
  */
void SystemInit(void)
{
 8000b60:	b480      	push	{r7}
 8000b62:	af00      	add	r7, sp, #0
  /* FPU settings ------------------------------------------------------------*/
  #if (__FPU_PRESENT == 1) && (__FPU_USED == 1)
    SCB->CPACR |= ((3UL << 10*2)|(3UL << 11*2));  /* set CP10 and CP11 Full Access */
 8000b64:	4b06      	ldr	r3, [pc, #24]	@ (8000b80 <SystemInit+0x20>)
 8000b66:	f8d3 3088 	ldr.w	r3, [r3, #136]	@ 0x88
 8000b6a:	4a05      	ldr	r2, [pc, #20]	@ (8000b80 <SystemInit+0x20>)
 8000b6c:	f443 0370 	orr.w	r3, r3, #15728640	@ 0xf00000
 8000b70:	f8c2 3088 	str.w	r3, [r2, #136]	@ 0x88

  /* Configure the Vector Table location -------------------------------------*/
#if defined(USER_VECT_TAB_ADDRESS)
  SCB->VTOR = VECT_TAB_BASE_ADDRESS | VECT_TAB_OFFSET; /* Vector Table Relocation in Internal SRAM */
#endif /* USER_VECT_TAB_ADDRESS */
}
 8000b74:	bf00      	nop
 8000b76:	46bd      	mov	sp, r7
 8000b78:	f85d 7b04 	ldr.w	r7, [sp], #4
 8000b7c:	4770      	bx	lr
 8000b7e:	bf00      	nop
 8000b80:	e000ed00 	.word	0xe000ed00

08000b84 <Reset_Handler>:

    .section  .text.Reset_Handler
  .weak  Reset_Handler
  .type  Reset_Handler, %function
Reset_Handler:  
  ldr   sp, =_estack      /* set stack pointer */
 8000b84:	f8df d034 	ldr.w	sp, [pc, #52]	@ 8000bbc <LoopFillZerobss+0xe>
  
/* Call the clock system initialization function.*/
  bl  SystemInit  
 8000b88:	f7ff ffea 	bl	8000b60 <SystemInit>

/* Copy the data segment initializers from flash to SRAM */  
  ldr r0, =_sdata
 8000b8c:	480c      	ldr	r0, [pc, #48]	@ (8000bc0 <LoopFillZerobss+0x12>)
  ldr r1, =_edata
 8000b8e:	490d      	ldr	r1, [pc, #52]	@ (8000bc4 <LoopFillZerobss+0x16>)
  ldr r2, =_sidata
 8000b90:	4a0d      	ldr	r2, [pc, #52]	@ (8000bc8 <LoopFillZerobss+0x1a>)
  movs r3, #0
 8000b92:	2300      	movs	r3, #0
  b LoopCopyDataInit
 8000b94:	e002      	b.n	8000b9c <LoopCopyDataInit>

08000b96 <CopyDataInit>:

CopyDataInit:
  ldr r4, [r2, r3]
 8000b96:	58d4      	ldr	r4, [r2, r3]
  str r4, [r0, r3]
 8000b98:	50c4      	str	r4, [r0, r3]
  adds r3, r3, #4
 8000b9a:	3304      	adds	r3, #4

08000b9c <LoopCopyDataInit>:

LoopCopyDataInit:
  adds r4, r0, r3
 8000b9c:	18c4      	adds	r4, r0, r3
  cmp r4, r1
 8000b9e:	428c      	cmp	r4, r1
  bcc CopyDataInit
 8000ba0:	d3f9      	bcc.n	8000b96 <CopyDataInit>
  
/* Zero fill the bss segment. */
  ldr r2, =_sbss
 8000ba2:	4a0a      	ldr	r2, [pc, #40]	@ (8000bcc <LoopFillZerobss+0x1e>)
  ldr r4, =_ebss
 8000ba4:	4c0a      	ldr	r4, [pc, #40]	@ (8000bd0 <LoopFillZerobss+0x22>)
  movs r3, #0
 8000ba6:	2300      	movs	r3, #0
  b LoopFillZerobss
 8000ba8:	e001      	b.n	8000bae <LoopFillZerobss>

08000baa <FillZerobss>:

FillZerobss:
  str  r3, [r2]
 8000baa:	6013      	str	r3, [r2, #0]
  adds r2, r2, #4
 8000bac:	3204      	adds	r2, #4

08000bae <LoopFillZerobss>:

LoopFillZerobss:
  cmp r2, r4
 8000bae:	42a2      	cmp	r2, r4
  bcc FillZerobss
 8000bb0:	d3fb      	bcc.n	8000baa <FillZerobss>
  
/* Call static constructors */
    bl __libc_init_array
 8000bb2:	f002 fa5d 	bl	8003070 <__libc_init_array>
/* Call the application's entry point.*/
  bl  main
 8000bb6:	f7ff fc9d 	bl	80004f4 <main>
  bx  lr    
 8000bba:	4770      	bx	lr
  ldr   sp, =_estack      /* set stack pointer */
 8000bbc:	20020000 	.word	0x20020000
  ldr r0, =_sdata
 8000bc0:	20000000 	.word	0x20000000
  ldr r1, =_edata
 8000bc4:	2000000c 	.word	0x2000000c
  ldr r2, =_sidata
 8000bc8:	080030f8 	.word	0x080030f8
  ldr r2, =_sbss
 8000bcc:	2000000c 	.word	0x2000000c
  ldr r4, =_ebss
 8000bd0:	20000104 	.word	0x20000104

08000bd4 <ADC_IRQHandler>:
 * @retval None       
*/
    .section  .text.Default_Handler,"ax",%progbits
Default_Handler:
Infinite_Loop:
  b  Infinite_Loop
 8000bd4:	e7fe      	b.n	8000bd4 <ADC_IRQHandler>
	...

08000bd8 <HAL_Init>:
  *         need to ensure that the SysTick time base is always set to 1 millisecond
  *         to have correct HAL operation.
  * @retval HAL status
  */
HAL_StatusTypeDef HAL_Init(void)
{
 8000bd8:	b580      	push	{r7, lr}
 8000bda:	af00      	add	r7, sp, #0
  /* Configure Flash prefetch, Instruction cache, Data cache */ 
#if (INSTRUCTION_CACHE_ENABLE != 0U)
  __HAL_FLASH_INSTRUCTION_CACHE_ENABLE();
 8000bdc:	4b0e      	ldr	r3, [pc, #56]	@ (8000c18 <HAL_Init+0x40>)
 8000bde:	681b      	ldr	r3, [r3, #0]
 8000be0:	4a0d      	ldr	r2, [pc, #52]	@ (8000c18 <HAL_Init+0x40>)
 8000be2:	f443 7300 	orr.w	r3, r3, #512	@ 0x200
 8000be6:	6013      	str	r3, [r2, #0]
#endif /* INSTRUCTION_CACHE_ENABLE */

#if (DATA_CACHE_ENABLE != 0U)
  __HAL_FLASH_DATA_CACHE_ENABLE();
 8000be8:	4b0b      	ldr	r3, [pc, #44]	@ (8000c18 <HAL_Init+0x40>)
 8000bea:	681b      	ldr	r3, [r3, #0]
 8000bec:	4a0a      	ldr	r2, [pc, #40]	@ (8000c18 <HAL_Init+0x40>)
 8000bee:	f443 6380 	orr.w	r3, r3, #1024	@ 0x400
 8000bf2:	6013      	str	r3, [r2, #0]
#endif /* DATA_CACHE_ENABLE */

#if (PREFETCH_ENABLE != 0U)
  __HAL_FLASH_PREFETCH_BUFFER_ENABLE();
 8000bf4:	4b08      	ldr	r3, [pc, #32]	@ (8000c18 <HAL_Init+0x40>)
 8000bf6:	681b      	ldr	r3, [r3, #0]
 8000bf8:	4a07      	ldr	r2, [pc, #28]	@ (8000c18 <HAL_Init+0x40>)
 8000bfa:	f443 7380 	orr.w	r3, r3, #256	@ 0x100
 8000bfe:	6013      	str	r3, [r2, #0]
#endif /* PREFETCH_ENABLE */

  /* Set Interrupt Group Priority */
  HAL_NVIC_SetPriorityGrouping(NVIC_PRIORITYGROUP_4);
 8000c00:	2003      	movs	r0, #3
 8000c02:	f000 f931 	bl	8000e68 <HAL_NVIC_SetPriorityGrouping>

  /* Use systick as time base source and configure 1ms tick (default clock after Reset is HSI) */
  HAL_InitTick(TICK_INT_PRIORITY);
 8000c06:	2000      	movs	r0, #0
 8000c08:	f000 f808 	bl	8000c1c <HAL_InitTick>

  /* Init the low level hardware */
  HAL_MspInit();
 8000c0c:	f7ff fe68 	bl	80008e0 <HAL_MspInit>

  /* Return function status */
  return HAL_OK;
 8000c10:	2300      	movs	r3, #0
}
 8000c12:	4618      	mov	r0, r3
 8000c14:	bd80      	pop	{r7, pc}
 8000c16:	bf00      	nop
 8000c18:	40023c00 	.word	0x40023c00

08000c1c <HAL_InitTick>:
  *       implementation  in user file.
  * @param TickPriority Tick interrupt priority.
  * @retval HAL status
  */
__weak HAL_StatusTypeDef HAL_InitTick(uint32_t TickPriority)
{
 8000c1c:	b580      	push	{r7, lr}
 8000c1e:	b082      	sub	sp, #8
 8000c20:	af00      	add	r7, sp, #0
 8000c22:	6078      	str	r0, [r7, #4]
  /* Configure the SysTick to have interrupt in 1ms time basis*/
  if (HAL_SYSTICK_Config(SystemCoreClock / (1000U / uwTickFreq)) > 0U)
 8000c24:	4b12      	ldr	r3, [pc, #72]	@ (8000c70 <HAL_InitTick+0x54>)
 8000c26:	681a      	ldr	r2, [r3, #0]
 8000c28:	4b12      	ldr	r3, [pc, #72]	@ (8000c74 <HAL_InitTick+0x58>)
 8000c2a:	781b      	ldrb	r3, [r3, #0]
 8000c2c:	4619      	mov	r1, r3
 8000c2e:	f44f 737a 	mov.w	r3, #1000	@ 0x3e8
 8000c32:	fbb3 f3f1 	udiv	r3, r3, r1
 8000c36:	fbb2 f3f3 	udiv	r3, r2, r3
 8000c3a:	4618      	mov	r0, r3
 8000c3c:	f000 f93b 	bl	8000eb6 <HAL_SYSTICK_Config>
 8000c40:	4603      	mov	r3, r0
 8000c42:	2b00      	cmp	r3, #0
 8000c44:	d001      	beq.n	8000c4a <HAL_InitTick+0x2e>
  {
    return HAL_ERROR;
 8000c46:	2301      	movs	r3, #1
 8000c48:	e00e      	b.n	8000c68 <HAL_InitTick+0x4c>
  }

  /* Configure the SysTick IRQ priority */
  if (TickPriority < (1UL << __NVIC_PRIO_BITS))
 8000c4a:	687b      	ldr	r3, [r7, #4]
 8000c4c:	2b0f      	cmp	r3, #15
 8000c4e:	d80a      	bhi.n	8000c66 <HAL_InitTick+0x4a>
  {
    HAL_NVIC_SetPriority(SysTick_IRQn, TickPriority, 0U);
 8000c50:	2200      	movs	r2, #0
 8000c52:	6879      	ldr	r1, [r7, #4]
 8000c54:	f04f 30ff 	mov.w	r0, #4294967295	@ 0xffffffff
 8000c58:	f000 f911 	bl	8000e7e <HAL_NVIC_SetPriority>
    uwTickPrio = TickPriority;
 8000c5c:	4a06      	ldr	r2, [pc, #24]	@ (8000c78 <HAL_InitTick+0x5c>)
 8000c5e:	687b      	ldr	r3, [r7, #4]
 8000c60:	6013      	str	r3, [r2, #0]
  {
    return HAL_ERROR;
  }

  /* Return function status */
  return HAL_OK;
 8000c62:	2300      	movs	r3, #0
 8000c64:	e000      	b.n	8000c68 <HAL_InitTick+0x4c>
    return HAL_ERROR;
 8000c66:	2301      	movs	r3, #1
}
 8000c68:	4618      	mov	r0, r3
 8000c6a:	3708      	adds	r7, #8
 8000c6c:	46bd      	mov	sp, r7
 8000c6e:	bd80      	pop	{r7, pc}
 8000c70:	20000000 	.word	0x20000000
 8000c74:	20000008 	.word	0x20000008
 8000c78:	20000004 	.word	0x20000004

08000c7c <HAL_IncTick>:
 * @note This function is declared as __weak to be overwritten in case of other 
  *      implementations in user file.
  * @retval None
  */
__weak void HAL_IncTick(void)
{
 8000c7c:	b480      	push	{r7}
 8000c7e:	af00      	add	r7, sp, #0
  uwTick += uwTickFreq;
 8000c80:	4b06      	ldr	r3, [pc, #24]	@ (8000c9c <HAL_IncTick+0x20>)
 8000c82:	781b      	ldrb	r3, [r3, #0]
 8000c84:	461a      	mov	r2, r3
 8000c86:	4b06      	ldr	r3, [pc, #24]	@ (8000ca0 <HAL_IncTick+0x24>)
 8000c88:	681b      	ldr	r3, [r3, #0]
 8000c8a:	4413      	add	r3, r2
 8000c8c:	4a04      	ldr	r2, [pc, #16]	@ (8000ca0 <HAL_IncTick+0x24>)
 8000c8e:	6013      	str	r3, [r2, #0]
}
 8000c90:	bf00      	nop
 8000c92:	46bd      	mov	sp, r7
 8000c94:	f85d 7b04 	ldr.w	r7, [sp], #4
 8000c98:	4770      	bx	lr
 8000c9a:	bf00      	nop
 8000c9c:	20000008 	.word	0x20000008
 8000ca0:	20000100 	.word	0x20000100

08000ca4 <HAL_GetTick>:
  * @note This function is declared as __weak to be overwritten in case of other 
  *       implementations in user file.
  * @retval tick value
  */
__weak uint32_t HAL_GetTick(void)
{
 8000ca4:	b480      	push	{r7}
 8000ca6:	af00      	add	r7, sp, #0
  return uwTick;
 8000ca8:	4b03      	ldr	r3, [pc, #12]	@ (8000cb8 <HAL_GetTick+0x14>)
 8000caa:	681b      	ldr	r3, [r3, #0]
}
 8000cac:	4618      	mov	r0, r3
 8000cae:	46bd      	mov	sp, r7
 8000cb0:	f85d 7b04 	ldr.w	r7, [sp], #4
 8000cb4:	4770      	bx	lr
 8000cb6:	bf00      	nop
 8000cb8:	20000100 	.word	0x20000100

08000cbc <HAL_Delay>:
  *       implementations in user file.
  * @param Delay specifies the delay time length, in milliseconds.
  * @retval None
  */
__weak void HAL_Delay(uint32_t Delay)
{
 8000cbc:	b580      	push	{r7, lr}
 8000cbe:	b084      	sub	sp, #16
 8000cc0:	af00      	add	r7, sp, #0
 8000cc2:	6078      	str	r0, [r7, #4]
  uint32_t tickstart = HAL_GetTick();
 8000cc4:	f7ff ffee 	bl	8000ca4 <HAL_GetTick>
 8000cc8:	60b8      	str	r0, [r7, #8]
  uint32_t wait = Delay;
 8000cca:	687b      	ldr	r3, [r7, #4]
 8000ccc:	60fb      	str	r3, [r7, #12]

  /* Add a freq to guarantee minimum wait */
  if (wait < HAL_MAX_DELAY)
 8000cce:	68fb      	ldr	r3, [r7, #12]
 8000cd0:	f1b3 3fff 	cmp.w	r3, #4294967295	@ 0xffffffff
 8000cd4:	d005      	beq.n	8000ce2 <HAL_Delay+0x26>
  {
    wait += (uint32_t)(uwTickFreq);
 8000cd6:	4b0a      	ldr	r3, [pc, #40]	@ (8000d00 <HAL_Delay+0x44>)
 8000cd8:	781b      	ldrb	r3, [r3, #0]
 8000cda:	461a      	mov	r2, r3
 8000cdc:	68fb      	ldr	r3, [r7, #12]
 8000cde:	4413      	add	r3, r2
 8000ce0:	60fb      	str	r3, [r7, #12]
  }

  while((HAL_GetTick() - tickstart) < wait)
 8000ce2:	bf00      	nop
 8000ce4:	f7ff ffde 	bl	8000ca4 <HAL_GetTick>
 8000ce8:	4602      	mov	r2, r0
 8000cea:	68bb      	ldr	r3, [r7, #8]
 8000cec:	1ad3      	subs	r3, r2, r3
 8000cee:	68fa      	ldr	r2, [r7, #12]
 8000cf0:	429a      	cmp	r2, r3
 8000cf2:	d8f7      	bhi.n	8000ce4 <HAL_Delay+0x28>
  {
  }
}
 8000cf4:	bf00      	nop
 8000cf6:	bf00      	nop
 8000cf8:	3710      	adds	r7, #16
 8000cfa:	46bd      	mov	sp, r7
 8000cfc:	bd80      	pop	{r7, pc}
 8000cfe:	bf00      	nop
 8000d00:	20000008 	.word	0x20000008

08000d04 <__NVIC_SetPriorityGrouping>:
           In case of a conflict between priority grouping and available
           priority bits (__NVIC_PRIO_BITS), the smallest possible priority group is set.
  \param [in]      PriorityGroup  Priority grouping field.
 */
__STATIC_INLINE void __NVIC_SetPriorityGrouping(uint32_t PriorityGroup)
{
 8000d04:	b480      	push	{r7}
 8000d06:	b085      	sub	sp, #20
 8000d08:	af00      	add	r7, sp, #0
 8000d0a:	6078      	str	r0, [r7, #4]
  uint32_t reg_value;
  uint32_t PriorityGroupTmp = (PriorityGroup & (uint32_t)0x07UL);             /* only values 0..7 are used          */
 8000d0c:	687b      	ldr	r3, [r7, #4]
 8000d0e:	f003 0307 	and.w	r3, r3, #7
 8000d12:	60fb      	str	r3, [r7, #12]

  reg_value  =  SCB->AIRCR;                                                   /* read old register configuration    */
 8000d14:	4b0c      	ldr	r3, [pc, #48]	@ (8000d48 <__NVIC_SetPriorityGrouping+0x44>)
 8000d16:	68db      	ldr	r3, [r3, #12]
 8000d18:	60bb      	str	r3, [r7, #8]
  reg_value &= ~((uint32_t)(SCB_AIRCR_VECTKEY_Msk | SCB_AIRCR_PRIGROUP_Msk)); /* clear bits to change               */
 8000d1a:	68ba      	ldr	r2, [r7, #8]
 8000d1c:	f64f 03ff 	movw	r3, #63743	@ 0xf8ff
 8000d20:	4013      	ands	r3, r2
 8000d22:	60bb      	str	r3, [r7, #8]
  reg_value  =  (reg_value                                   |
                ((uint32_t)0x5FAUL << SCB_AIRCR_VECTKEY_Pos) |
                (PriorityGroupTmp << SCB_AIRCR_PRIGROUP_Pos)  );              /* Insert write key and priority group */
 8000d24:	68fb      	ldr	r3, [r7, #12]
 8000d26:	021a      	lsls	r2, r3, #8
                ((uint32_t)0x5FAUL << SCB_AIRCR_VECTKEY_Pos) |
 8000d28:	68bb      	ldr	r3, [r7, #8]
 8000d2a:	4313      	orrs	r3, r2
  reg_value  =  (reg_value                                   |
 8000d2c:	f043 63bf 	orr.w	r3, r3, #100139008	@ 0x5f80000
 8000d30:	f443 3300 	orr.w	r3, r3, #131072	@ 0x20000
 8000d34:	60bb      	str	r3, [r7, #8]
  SCB->AIRCR =  reg_value;
 8000d36:	4a04      	ldr	r2, [pc, #16]	@ (8000d48 <__NVIC_SetPriorityGrouping+0x44>)
 8000d38:	68bb      	ldr	r3, [r7, #8]
 8000d3a:	60d3      	str	r3, [r2, #12]
}
 8000d3c:	bf00      	nop
 8000d3e:	3714      	adds	r7, #20
 8000d40:	46bd      	mov	sp, r7
 8000d42:	f85d 7b04 	ldr.w	r7, [sp], #4
 8000d46:	4770      	bx	lr
 8000d48:	e000ed00 	.word	0xe000ed00

08000d4c <__NVIC_GetPriorityGrouping>:
  \brief   Get Priority Grouping
  \details Reads the priority grouping field from the NVIC Interrupt Controller.
  \return                Priority grouping field (SCB->AIRCR [10:8] PRIGROUP field).
 */
__STATIC_INLINE uint32_t __NVIC_GetPriorityGrouping(void)
{
 8000d4c:	b480      	push	{r7}
 8000d4e:	af00      	add	r7, sp, #0
  return ((uint32_t)((SCB->AIRCR & SCB_AIRCR_PRIGROUP_Msk) >> SCB_AIRCR_PRIGROUP_Pos));
 8000d50:	4b04      	ldr	r3, [pc, #16]	@ (8000d64 <__NVIC_GetPriorityGrouping+0x18>)
 8000d52:	68db      	ldr	r3, [r3, #12]
 8000d54:	0a1b      	lsrs	r3, r3, #8
 8000d56:	f003 0307 	and.w	r3, r3, #7
}
 8000d5a:	4618      	mov	r0, r3
 8000d5c:	46bd      	mov	sp, r7
 8000d5e:	f85d 7b04 	ldr.w	r7, [sp], #4
 8000d62:	4770      	bx	lr
 8000d64:	e000ed00 	.word	0xe000ed00

08000d68 <__NVIC_SetPriority>:
  \param [in]      IRQn  Interrupt number.
  \param [in]  priority  Priority to set.
  \note    The priority cannot be set for every processor exception.
 */
__STATIC_INLINE void __NVIC_SetPriority(IRQn_Type IRQn, uint32_t priority)
{
 8000d68:	b480      	push	{r7}
 8000d6a:	b083      	sub	sp, #12
 8000d6c:	af00      	add	r7, sp, #0
 8000d6e:	4603      	mov	r3, r0
 8000d70:	6039      	str	r1, [r7, #0]
 8000d72:	71fb      	strb	r3, [r7, #7]
  if ((int32_t)(IRQn) >= 0)
 8000d74:	f997 3007 	ldrsb.w	r3, [r7, #7]
 8000d78:	2b00      	cmp	r3, #0
 8000d7a:	db0a      	blt.n	8000d92 <__NVIC_SetPriority+0x2a>
  {
    NVIC->IP[((uint32_t)IRQn)]               = (uint8_t)((priority << (8U - __NVIC_PRIO_BITS)) & (uint32_t)0xFFUL);
 8000d7c:	683b      	ldr	r3, [r7, #0]
 8000d7e:	b2da      	uxtb	r2, r3
 8000d80:	490c      	ldr	r1, [pc, #48]	@ (8000db4 <__NVIC_SetPriority+0x4c>)
 8000d82:	f997 3007 	ldrsb.w	r3, [r7, #7]
 8000d86:	0112      	lsls	r2, r2, #4
 8000d88:	b2d2      	uxtb	r2, r2
 8000d8a:	440b      	add	r3, r1
 8000d8c:	f883 2300 	strb.w	r2, [r3, #768]	@ 0x300
  }
  else
  {
    SCB->SHP[(((uint32_t)IRQn) & 0xFUL)-4UL] = (uint8_t)((priority << (8U - __NVIC_PRIO_BITS)) & (uint32_t)0xFFUL);
  }
}
 8000d90:	e00a      	b.n	8000da8 <__NVIC_SetPriority+0x40>
    SCB->SHP[(((uint32_t)IRQn) & 0xFUL)-4UL] = (uint8_t)((priority << (8U - __NVIC_PRIO_BITS)) & (uint32_t)0xFFUL);
 8000d92:	683b      	ldr	r3, [r7, #0]
 8000d94:	b2da      	uxtb	r2, r3
 8000d96:	4908      	ldr	r1, [pc, #32]	@ (8000db8 <__NVIC_SetPriority+0x50>)
 8000d98:	79fb      	ldrb	r3, [r7, #7]
 8000d9a:	f003 030f 	and.w	r3, r3, #15
 8000d9e:	3b04      	subs	r3, #4
 8000da0:	0112      	lsls	r2, r2, #4
 8000da2:	b2d2      	uxtb	r2, r2
 8000da4:	440b      	add	r3, r1
 8000da6:	761a      	strb	r2, [r3, #24]
}
 8000da8:	bf00      	nop
 8000daa:	370c      	adds	r7, #12
 8000dac:	46bd      	mov	sp, r7
 8000dae:	f85d 7b04 	ldr.w	r7, [sp], #4
 8000db2:	4770      	bx	lr
 8000db4:	e000e100 	.word	0xe000e100
 8000db8:	e000ed00 	.word	0xe000ed00

08000dbc <NVIC_EncodePriority>:
  \param [in]   PreemptPriority  Preemptive priority value (starting from 0).
  \param [in]       SubPriority  Subpriority value (starting from 0).
  \return                        Encoded priority. Value can be used in the function \ref NVIC_SetPriority().
 */
__STATIC_INLINE uint32_t NVIC_EncodePriority (uint32_t PriorityGroup, uint32_t PreemptPriority, uint32_t SubPriority)
{
 8000dbc:	b480      	push	{r7}
 8000dbe:	b089      	sub	sp, #36	@ 0x24
 8000dc0:	af00      	add	r7, sp, #0
 8000dc2:	60f8      	str	r0, [r7, #12]
 8000dc4:	60b9      	str	r1, [r7, #8]
 8000dc6:	607a      	str	r2, [r7, #4]
  uint32_t PriorityGroupTmp = (PriorityGroup & (uint32_t)0x07UL);   /* only values 0..7 are used          */
 8000dc8:	68fb      	ldr	r3, [r7, #12]
 8000dca:	f003 0307 	and.w	r3, r3, #7
 8000dce:	61fb      	str	r3, [r7, #28]
  uint32_t PreemptPriorityBits;
  uint32_t SubPriorityBits;

  PreemptPriorityBits = ((7UL - PriorityGroupTmp) > (uint32_t)(__NVIC_PRIO_BITS)) ? (uint32_t)(__NVIC_PRIO_BITS) : (uint32_t)(7UL - PriorityGroupTmp);
 8000dd0:	69fb      	ldr	r3, [r7, #28]
 8000dd2:	f1c3 0307 	rsb	r3, r3, #7
 8000dd6:	2b04      	cmp	r3, #4
 8000dd8:	bf28      	it	cs
 8000dda:	2304      	movcs	r3, #4
 8000ddc:	61bb      	str	r3, [r7, #24]
  SubPriorityBits     = ((PriorityGroupTmp + (uint32_t)(__NVIC_PRIO_BITS)) < (uint32_t)7UL) ? (uint32_t)0UL : (uint32_t)((PriorityGroupTmp - 7UL) + (uint32_t)(__NVIC_PRIO_BITS));
 8000dde:	69fb      	ldr	r3, [r7, #28]
 8000de0:	3304      	adds	r3, #4
 8000de2:	2b06      	cmp	r3, #6
 8000de4:	d902      	bls.n	8000dec <NVIC_EncodePriority+0x30>
 8000de6:	69fb      	ldr	r3, [r7, #28]
 8000de8:	3b03      	subs	r3, #3
 8000dea:	e000      	b.n	8000dee <NVIC_EncodePriority+0x32>
 8000dec:	2300      	movs	r3, #0
 8000dee:	617b      	str	r3, [r7, #20]

  return (
           ((PreemptPriority & (uint32_t)((1UL << (PreemptPriorityBits)) - 1UL)) << SubPriorityBits) |
 8000df0:	f04f 32ff 	mov.w	r2, #4294967295	@ 0xffffffff
 8000df4:	69bb      	ldr	r3, [r7, #24]
 8000df6:	fa02 f303 	lsl.w	r3, r2, r3
 8000dfa:	43da      	mvns	r2, r3
 8000dfc:	68bb      	ldr	r3, [r7, #8]
 8000dfe:	401a      	ands	r2, r3
 8000e00:	697b      	ldr	r3, [r7, #20]
 8000e02:	409a      	lsls	r2, r3
           ((SubPriority     & (uint32_t)((1UL << (SubPriorityBits    )) - 1UL)))
 8000e04:	f04f 31ff 	mov.w	r1, #4294967295	@ 0xffffffff
 8000e08:	697b      	ldr	r3, [r7, #20]
 8000e0a:	fa01 f303 	lsl.w	r3, r1, r3
 8000e0e:	43d9      	mvns	r1, r3
 8000e10:	687b      	ldr	r3, [r7, #4]
 8000e12:	400b      	ands	r3, r1
           ((PreemptPriority & (uint32_t)((1UL << (PreemptPriorityBits)) - 1UL)) << SubPriorityBits) |
 8000e14:	4313      	orrs	r3, r2
         );
}
 8000e16:	4618      	mov	r0, r3
 8000e18:	3724      	adds	r7, #36	@ 0x24
 8000e1a:	46bd      	mov	sp, r7
 8000e1c:	f85d 7b04 	ldr.w	r7, [sp], #4
 8000e20:	4770      	bx	lr
	...

08000e24 <SysTick_Config>:
  \note    When the variable <b>__Vendor_SysTickConfig</b> is set to 1, then the
           function <b>SysTick_Config</b> is not included. In this case, the file <b><i>device</i>.h</b>
           must contain a vendor-specific implementation of this function.
 */
__STATIC_INLINE uint32_t SysTick_Config(uint32_t ticks)
{
 8000e24:	b580      	push	{r7, lr}
 8000e26:	b082      	sub	sp, #8
 8000e28:	af00      	add	r7, sp, #0
 8000e2a:	6078      	str	r0, [r7, #4]
  if ((ticks - 1UL) > SysTick_LOAD_RELOAD_Msk)
 8000e2c:	687b      	ldr	r3, [r7, #4]
 8000e2e:	3b01      	subs	r3, #1
 8000e30:	f1b3 7f80 	cmp.w	r3, #16777216	@ 0x1000000
 8000e34:	d301      	bcc.n	8000e3a <SysTick_Config+0x16>
  {
    return (1UL);                                                   /* Reload value impossible */
 8000e36:	2301      	movs	r3, #1
 8000e38:	e00f      	b.n	8000e5a <SysTick_Config+0x36>
  }

  SysTick->LOAD  = (uint32_t)(ticks - 1UL);                         /* set reload register */
 8000e3a:	4a0a      	ldr	r2, [pc, #40]	@ (8000e64 <SysTick_Config+0x40>)
 8000e3c:	687b      	ldr	r3, [r7, #4]
 8000e3e:	3b01      	subs	r3, #1
 8000e40:	6053      	str	r3, [r2, #4]
  NVIC_SetPriority (SysTick_IRQn, (1UL << __NVIC_PRIO_BITS) - 1UL); /* set Priority for Systick Interrupt */
 8000e42:	210f      	movs	r1, #15
 8000e44:	f04f 30ff 	mov.w	r0, #4294967295	@ 0xffffffff
 8000e48:	f7ff ff8e 	bl	8000d68 <__NVIC_SetPriority>
  SysTick->VAL   = 0UL;                                             /* Load the SysTick Counter Value */
 8000e4c:	4b05      	ldr	r3, [pc, #20]	@ (8000e64 <SysTick_Config+0x40>)
 8000e4e:	2200      	movs	r2, #0
 8000e50:	609a      	str	r2, [r3, #8]
  SysTick->CTRL  = SysTick_CTRL_CLKSOURCE_Msk |
 8000e52:	4b04      	ldr	r3, [pc, #16]	@ (8000e64 <SysTick_Config+0x40>)
 8000e54:	2207      	movs	r2, #7
 8000e56:	601a      	str	r2, [r3, #0]
                   SysTick_CTRL_TICKINT_Msk   |
                   SysTick_CTRL_ENABLE_Msk;                         /* Enable SysTick IRQ and SysTick Timer */
  return (0UL);                                                     /* Function successful */
 8000e58:	2300      	movs	r3, #0
}
 8000e5a:	4618      	mov	r0, r3
 8000e5c:	3708      	adds	r7, #8
 8000e5e:	46bd      	mov	sp, r7
 8000e60:	bd80      	pop	{r7, pc}
 8000e62:	bf00      	nop
 8000e64:	e000e010 	.word	0xe000e010

08000e68 <HAL_NVIC_SetPriorityGrouping>:
  * @note   When the NVIC_PriorityGroup_0 is selected, IRQ preemption is no more possible. 
  *         The pending IRQ priority will be managed only by the subpriority. 
  * @retval None
  */
void HAL_NVIC_SetPriorityGrouping(uint32_t PriorityGroup)
{
 8000e68:	b580      	push	{r7, lr}
 8000e6a:	b082      	sub	sp, #8
 8000e6c:	af00      	add	r7, sp, #0
 8000e6e:	6078      	str	r0, [r7, #4]
  /* Check the parameters */
  assert_param(IS_NVIC_PRIORITY_GROUP(PriorityGroup));
  
  /* Set the PRIGROUP[10:8] bits according to the PriorityGroup parameter value */
  NVIC_SetPriorityGrouping(PriorityGroup);
 8000e70:	6878      	ldr	r0, [r7, #4]
 8000e72:	f7ff ff47 	bl	8000d04 <__NVIC_SetPriorityGrouping>
}
 8000e76:	bf00      	nop
 8000e78:	3708      	adds	r7, #8
 8000e7a:	46bd      	mov	sp, r7
 8000e7c:	bd80      	pop	{r7, pc}

08000e7e <HAL_NVIC_SetPriority>:
  *         This parameter can be a value between 0 and 15
  *         A lower priority value indicates a higher priority.          
  * @retval None
  */
void HAL_NVIC_SetPriority(IRQn_Type IRQn, uint32_t PreemptPriority, uint32_t SubPriority)
{ 
 8000e7e:	b580      	push	{r7, lr}
 8000e80:	b086      	sub	sp, #24
 8000e82:	af00      	add	r7, sp, #0
 8000e84:	4603      	mov	r3, r0
 8000e86:	60b9      	str	r1, [r7, #8]
 8000e88:	607a      	str	r2, [r7, #4]
 8000e8a:	73fb      	strb	r3, [r7, #15]
  uint32_t prioritygroup = 0x00U;
 8000e8c:	2300      	movs	r3, #0
 8000e8e:	617b      	str	r3, [r7, #20]
  
  /* Check the parameters */
  assert_param(IS_NVIC_SUB_PRIORITY(SubPriority));
  assert_param(IS_NVIC_PREEMPTION_PRIORITY(PreemptPriority));
  
  prioritygroup = NVIC_GetPriorityGrouping();
 8000e90:	f7ff ff5c 	bl	8000d4c <__NVIC_GetPriorityGrouping>
 8000e94:	6178      	str	r0, [r7, #20]
  
  NVIC_SetPriority(IRQn, NVIC_EncodePriority(prioritygroup, PreemptPriority, SubPriority));
 8000e96:	687a      	ldr	r2, [r7, #4]
 8000e98:	68b9      	ldr	r1, [r7, #8]
 8000e9a:	6978      	ldr	r0, [r7, #20]
 8000e9c:	f7ff ff8e 	bl	8000dbc <NVIC_EncodePriority>
 8000ea0:	4602      	mov	r2, r0
 8000ea2:	f997 300f 	ldrsb.w	r3, [r7, #15]
 8000ea6:	4611      	mov	r1, r2
 8000ea8:	4618      	mov	r0, r3
 8000eaa:	f7ff ff5d 	bl	8000d68 <__NVIC_SetPriority>
}
 8000eae:	bf00      	nop
 8000eb0:	3718      	adds	r7, #24
 8000eb2:	46bd      	mov	sp, r7
 8000eb4:	bd80      	pop	{r7, pc}

08000eb6 <HAL_SYSTICK_Config>:
  * @param  TicksNumb Specifies the ticks Number of ticks between two interrupts.
  * @retval status:  - 0  Function succeeded.
  *                  - 1  Function failed.
  */
uint32_t HAL_SYSTICK_Config(uint32_t TicksNumb)
{
 8000eb6:	b580      	push	{r7, lr}
 8000eb8:	b082      	sub	sp, #8
 8000eba:	af00      	add	r7, sp, #0
 8000ebc:	6078      	str	r0, [r7, #4]
   return SysTick_Config(TicksNumb);
 8000ebe:	6878      	ldr	r0, [r7, #4]
 8000ec0:	f7ff ffb0 	bl	8000e24 <SysTick_Config>
 8000ec4:	4603      	mov	r3, r0
}
 8000ec6:	4618      	mov	r0, r3
 8000ec8:	3708      	adds	r7, #8
 8000eca:	46bd      	mov	sp, r7
 8000ecc:	bd80      	pop	{r7, pc}
	...

08000ed0 <HAL_GPIO_Init>:
  * @param  GPIO_Init pointer to a GPIO_InitTypeDef structure that contains
  *         the configuration information for the specified GPIO peripheral.
  * @retval None
  */
void HAL_GPIO_Init(GPIO_TypeDef  *GPIOx, GPIO_InitTypeDef *GPIO_Init)
{
 8000ed0:	b480      	push	{r7}
 8000ed2:	b089      	sub	sp, #36	@ 0x24
 8000ed4:	af00      	add	r7, sp, #0
 8000ed6:	6078      	str	r0, [r7, #4]
 8000ed8:	6039      	str	r1, [r7, #0]
  uint32_t position;
  uint32_t ioposition = 0x00U;
 8000eda:	2300      	movs	r3, #0
 8000edc:	617b      	str	r3, [r7, #20]
  uint32_t iocurrent = 0x00U;
 8000ede:	2300      	movs	r3, #0
 8000ee0:	613b      	str	r3, [r7, #16]
  uint32_t temp = 0x00U;
 8000ee2:	2300      	movs	r3, #0
 8000ee4:	61bb      	str	r3, [r7, #24]
  assert_param(IS_GPIO_ALL_INSTANCE(GPIOx));
  assert_param(IS_GPIO_PIN(GPIO_Init->Pin));
  assert_param(IS_GPIO_MODE(GPIO_Init->Mode));

  /* Configure the port pins */
  for(position = 0U; position < GPIO_NUMBER; position++)
 8000ee6:	2300      	movs	r3, #0
 8000ee8:	61fb      	str	r3, [r7, #28]
 8000eea:	e165      	b.n	80011b8 <HAL_GPIO_Init+0x2e8>
  {
    /* Get the IO position */
    ioposition = 0x01U << position;
 8000eec:	2201      	movs	r2, #1
 8000eee:	69fb      	ldr	r3, [r7, #28]
 8000ef0:	fa02 f303 	lsl.w	r3, r2, r3
 8000ef4:	617b      	str	r3, [r7, #20]
    /* Get the current IO position */
    iocurrent = (uint32_t)(GPIO_Init->Pin) & ioposition;
 8000ef6:	683b      	ldr	r3, [r7, #0]
 8000ef8:	681b      	ldr	r3, [r3, #0]
 8000efa:	697a      	ldr	r2, [r7, #20]
 8000efc:	4013      	ands	r3, r2
 8000efe:	613b      	str	r3, [r7, #16]

    if(iocurrent == ioposition)
 8000f00:	693a      	ldr	r2, [r7, #16]
 8000f02:	697b      	ldr	r3, [r7, #20]
 8000f04:	429a      	cmp	r2, r3
 8000f06:	f040 8154 	bne.w	80011b2 <HAL_GPIO_Init+0x2e2>
    {
      /*--------------------- GPIO Mode Configuration ------------------------*/
      /* In case of Output or Alternate function mode selection */
      if(((GPIO_Init->Mode & GPIO_MODE) == MODE_OUTPUT) || \
 8000f0a:	683b      	ldr	r3, [r7, #0]
 8000f0c:	685b      	ldr	r3, [r3, #4]
 8000f0e:	f003 0303 	and.w	r3, r3, #3
 8000f12:	2b01      	cmp	r3, #1
 8000f14:	d005      	beq.n	8000f22 <HAL_GPIO_Init+0x52>
          (GPIO_Init->Mode & GPIO_MODE) == MODE_AF)
 8000f16:	683b      	ldr	r3, [r7, #0]
 8000f18:	685b      	ldr	r3, [r3, #4]
 8000f1a:	f003 0303 	and.w	r3, r3, #3
      if(((GPIO_Init->Mode & GPIO_MODE) == MODE_OUTPUT) || \
 8000f1e:	2b02      	cmp	r3, #2
 8000f20:	d130      	bne.n	8000f84 <HAL_GPIO_Init+0xb4>
      {
        /* Check the Speed parameter */
        assert_param(IS_GPIO_SPEED(GPIO_Init->Speed));
        /* Configure the IO Speed */
        temp = GPIOx->OSPEEDR; 
 8000f22:	687b      	ldr	r3, [r7, #4]
 8000f24:	689b      	ldr	r3, [r3, #8]
 8000f26:	61bb      	str	r3, [r7, #24]
        temp &= ~(GPIO_OSPEEDER_OSPEEDR0 << (position * 2U));
 8000f28:	69fb      	ldr	r3, [r7, #28]
 8000f2a:	005b      	lsls	r3, r3, #1
 8000f2c:	2203      	movs	r2, #3
 8000f2e:	fa02 f303 	lsl.w	r3, r2, r3
 8000f32:	43db      	mvns	r3, r3
 8000f34:	69ba      	ldr	r2, [r7, #24]
 8000f36:	4013      	ands	r3, r2
 8000f38:	61bb      	str	r3, [r7, #24]
        temp |= (GPIO_Init->Speed << (position * 2U));
 8000f3a:	683b      	ldr	r3, [r7, #0]
 8000f3c:	68da      	ldr	r2, [r3, #12]
 8000f3e:	69fb      	ldr	r3, [r7, #28]
 8000f40:	005b      	lsls	r3, r3, #1
 8000f42:	fa02 f303 	lsl.w	r3, r2, r3
 8000f46:	69ba      	ldr	r2, [r7, #24]
 8000f48:	4313      	orrs	r3, r2
 8000f4a:	61bb      	str	r3, [r7, #24]
        GPIOx->OSPEEDR = temp;
 8000f4c:	687b      	ldr	r3, [r7, #4]
 8000f4e:	69ba      	ldr	r2, [r7, #24]
 8000f50:	609a      	str	r2, [r3, #8]

        /* Configure the IO Output Type */
        temp = GPIOx->OTYPER;
 8000f52:	687b      	ldr	r3, [r7, #4]
 8000f54:	685b      	ldr	r3, [r3, #4]
 8000f56:	61bb      	str	r3, [r7, #24]
        temp &= ~(GPIO_OTYPER_OT_0 << position) ;
 8000f58:	2201      	movs	r2, #1
 8000f5a:	69fb      	ldr	r3, [r7, #28]
 8000f5c:	fa02 f303 	lsl.w	r3, r2, r3
 8000f60:	43db      	mvns	r3, r3
 8000f62:	69ba      	ldr	r2, [r7, #24]
 8000f64:	4013      	ands	r3, r2
 8000f66:	61bb      	str	r3, [r7, #24]
        temp |= (((GPIO_Init->Mode & OUTPUT_TYPE) >> OUTPUT_TYPE_Pos) << position);
 8000f68:	683b      	ldr	r3, [r7, #0]
 8000f6a:	685b      	ldr	r3, [r3, #4]
 8000f6c:	091b      	lsrs	r3, r3, #4
 8000f6e:	f003 0201 	and.w	r2, r3, #1
 8000f72:	69fb      	ldr	r3, [r7, #28]
 8000f74:	fa02 f303 	lsl.w	r3, r2, r3
 8000f78:	69ba      	ldr	r2, [r7, #24]
 8000f7a:	4313      	orrs	r3, r2
 8000f7c:	61bb      	str	r3, [r7, #24]
        GPIOx->OTYPER = temp;
 8000f7e:	687b      	ldr	r3, [r7, #4]
 8000f80:	69ba      	ldr	r2, [r7, #24]
 8000f82:	605a      	str	r2, [r3, #4]
       }

      if((GPIO_Init->Mode & GPIO_MODE) != MODE_ANALOG)
 8000f84:	683b      	ldr	r3, [r7, #0]
 8000f86:	685b      	ldr	r3, [r3, #4]
 8000f88:	f003 0303 	and.w	r3, r3, #3
 8000f8c:	2b03      	cmp	r3, #3
 8000f8e:	d017      	beq.n	8000fc0 <HAL_GPIO_Init+0xf0>
      {
        /* Check the parameters */
        assert_param(IS_GPIO_PULL(GPIO_Init->Pull));
        
        /* Activate the Pull-up or Pull down resistor for the current IO */
        temp = GPIOx->PUPDR;
 8000f90:	687b      	ldr	r3, [r7, #4]
 8000f92:	68db      	ldr	r3, [r3, #12]
 8000f94:	61bb      	str	r3, [r7, #24]
        temp &= ~(GPIO_PUPDR_PUPDR0 << (position * 2U));
 8000f96:	69fb      	ldr	r3, [r7, #28]
 8000f98:	005b      	lsls	r3, r3, #1
 8000f9a:	2203      	movs	r2, #3
 8000f9c:	fa02 f303 	lsl.w	r3, r2, r3
 8000fa0:	43db      	mvns	r3, r3
 8000fa2:	69ba      	ldr	r2, [r7, #24]
 8000fa4:	4013      	ands	r3, r2
 8000fa6:	61bb      	str	r3, [r7, #24]
        temp |= ((GPIO_Init->Pull) << (position * 2U));
 8000fa8:	683b      	ldr	r3, [r7, #0]
 8000faa:	689a      	ldr	r2, [r3, #8]
 8000fac:	69fb      	ldr	r3, [r7, #28]
 8000fae:	005b      	lsls	r3, r3, #1
 8000fb0:	fa02 f303 	lsl.w	r3, r2, r3
 8000fb4:	69ba      	ldr	r2, [r7, #24]
 8000fb6:	4313      	orrs	r3, r2
 8000fb8:	61bb      	str	r3, [r7, #24]
        GPIOx->PUPDR = temp;
 8000fba:	687b      	ldr	r3, [r7, #4]
 8000fbc:	69ba      	ldr	r2, [r7, #24]
 8000fbe:	60da      	str	r2, [r3, #12]
      }

      /* In case of Alternate function mode selection */
      if((GPIO_Init->Mode & GPIO_MODE) == MODE_AF)
 8000fc0:	683b      	ldr	r3, [r7, #0]
 8000fc2:	685b      	ldr	r3, [r3, #4]
 8000fc4:	f003 0303 	and.w	r3, r3, #3
 8000fc8:	2b02      	cmp	r3, #2
 8000fca:	d123      	bne.n	8001014 <HAL_GPIO_Init+0x144>
      {
        /* Check the Alternate function parameter */
        assert_param(IS_GPIO_AF(GPIO_Init->Alternate));
        /* Configure Alternate function mapped with the current IO */
        temp = GPIOx->AFR[position >> 3U];
 8000fcc:	69fb      	ldr	r3, [r7, #28]
 8000fce:	08da      	lsrs	r2, r3, #3
 8000fd0:	687b      	ldr	r3, [r7, #4]
 8000fd2:	3208      	adds	r2, #8
 8000fd4:	f853 3022 	ldr.w	r3, [r3, r2, lsl #2]
 8000fd8:	61bb      	str	r3, [r7, #24]
        temp &= ~(0xFU << ((uint32_t)(position & 0x07U) * 4U)) ;
 8000fda:	69fb      	ldr	r3, [r7, #28]
 8000fdc:	f003 0307 	and.w	r3, r3, #7
 8000fe0:	009b      	lsls	r3, r3, #2
 8000fe2:	220f      	movs	r2, #15
 8000fe4:	fa02 f303 	lsl.w	r3, r2, r3
 8000fe8:	43db      	mvns	r3, r3
 8000fea:	69ba      	ldr	r2, [r7, #24]
 8000fec:	4013      	ands	r3, r2
 8000fee:	61bb      	str	r3, [r7, #24]
        temp |= ((uint32_t)(GPIO_Init->Alternate) << (((uint32_t)position & 0x07U) * 4U));
 8000ff0:	683b      	ldr	r3, [r7, #0]
 8000ff2:	691a      	ldr	r2, [r3, #16]
 8000ff4:	69fb      	ldr	r3, [r7, #28]
 8000ff6:	f003 0307 	and.w	r3, r3, #7
 8000ffa:	009b      	lsls	r3, r3, #2
 8000ffc:	fa02 f303 	lsl.w	r3, r2, r3
 8001000:	69ba      	ldr	r2, [r7, #24]
 8001002:	4313      	orrs	r3, r2
 8001004:	61bb      	str	r3, [r7, #24]
        GPIOx->AFR[position >> 3U] = temp;
 8001006:	69fb      	ldr	r3, [r7, #28]
 8001008:	08da      	lsrs	r2, r3, #3
 800100a:	687b      	ldr	r3, [r7, #4]
 800100c:	3208      	adds	r2, #8
 800100e:	69b9      	ldr	r1, [r7, #24]
 8001010:	f843 1022 	str.w	r1, [r3, r2, lsl #2]
      }

      /* Configure IO Direction mode (Input, Output, Alternate or Analog) */
      temp = GPIOx->MODER;
 8001014:	687b      	ldr	r3, [r7, #4]
 8001016:	681b      	ldr	r3, [r3, #0]
 8001018:	61bb      	str	r3, [r7, #24]
      temp &= ~(GPIO_MODER_MODER0 << (position * 2U));
 800101a:	69fb      	ldr	r3, [r7, #28]
 800101c:	005b      	lsls	r3, r3, #1
 800101e:	2203      	movs	r2, #3
 8001020:	fa02 f303 	lsl.w	r3, r2, r3
 8001024:	43db      	mvns	r3, r3
 8001026:	69ba      	ldr	r2, [r7, #24]
 8001028:	4013      	ands	r3, r2
 800102a:	61bb      	str	r3, [r7, #24]
      temp |= ((GPIO_Init->Mode & GPIO_MODE) << (position * 2U));
 800102c:	683b      	ldr	r3, [r7, #0]
 800102e:	685b      	ldr	r3, [r3, #4]
 8001030:	f003 0203 	and.w	r2, r3, #3
 8001034:	69fb      	ldr	r3, [r7, #28]
 8001036:	005b      	lsls	r3, r3, #1
 8001038:	fa02 f303 	lsl.w	r3, r2, r3
 800103c:	69ba      	ldr	r2, [r7, #24]
 800103e:	4313      	orrs	r3, r2
 8001040:	61bb      	str	r3, [r7, #24]
      GPIOx->MODER = temp;
 8001042:	687b      	ldr	r3, [r7, #4]
 8001044:	69ba      	ldr	r2, [r7, #24]
 8001046:	601a      	str	r2, [r3, #0]

      /*--------------------- EXTI Mode Configuration ------------------------*/
      /* Configure the External Interrupt or event for the current IO */
      if((GPIO_Init->Mode & EXTI_MODE) != 0x00U)
 8001048:	683b      	ldr	r3, [r7, #0]
 800104a:	685b      	ldr	r3, [r3, #4]
 800104c:	f403 3340 	and.w	r3, r3, #196608	@ 0x30000
 8001050:	2b00      	cmp	r3, #0
 8001052:	f000 80ae 	beq.w	80011b2 <HAL_GPIO_Init+0x2e2>
      {
        /* Enable SYSCFG Clock */
        __HAL_RCC_SYSCFG_CLK_ENABLE();
 8001056:	2300      	movs	r3, #0
 8001058:	60fb      	str	r3, [r7, #12]
 800105a:	4b5d      	ldr	r3, [pc, #372]	@ (80011d0 <HAL_GPIO_Init+0x300>)
 800105c:	6c5b      	ldr	r3, [r3, #68]	@ 0x44
 800105e:	4a5c      	ldr	r2, [pc, #368]	@ (80011d0 <HAL_GPIO_Init+0x300>)
 8001060:	f443 4380 	orr.w	r3, r3, #16384	@ 0x4000
 8001064:	6453      	str	r3, [r2, #68]	@ 0x44
 8001066:	4b5a      	ldr	r3, [pc, #360]	@ (80011d0 <HAL_GPIO_Init+0x300>)
 8001068:	6c5b      	ldr	r3, [r3, #68]	@ 0x44
 800106a:	f403 4380 	and.w	r3, r3, #16384	@ 0x4000
 800106e:	60fb      	str	r3, [r7, #12]
 8001070:	68fb      	ldr	r3, [r7, #12]

        temp = SYSCFG->EXTICR[position >> 2U];
 8001072:	4a58      	ldr	r2, [pc, #352]	@ (80011d4 <HAL_GPIO_Init+0x304>)
 8001074:	69fb      	ldr	r3, [r7, #28]
 8001076:	089b      	lsrs	r3, r3, #2
 8001078:	3302      	adds	r3, #2
 800107a:	f852 3023 	ldr.w	r3, [r2, r3, lsl #2]
 800107e:	61bb      	str	r3, [r7, #24]
        temp &= ~(0x0FU << (4U * (position & 0x03U)));
 8001080:	69fb      	ldr	r3, [r7, #28]
 8001082:	f003 0303 	and.w	r3, r3, #3
 8001086:	009b      	lsls	r3, r3, #2
 8001088:	220f      	movs	r2, #15
 800108a:	fa02 f303 	lsl.w	r3, r2, r3
 800108e:	43db      	mvns	r3, r3
 8001090:	69ba      	ldr	r2, [r7, #24]
 8001092:	4013      	ands	r3, r2
 8001094:	61bb      	str	r3, [r7, #24]
        temp |= ((uint32_t)(GPIO_GET_INDEX(GPIOx)) << (4U * (position & 0x03U)));
 8001096:	687b      	ldr	r3, [r7, #4]
 8001098:	4a4f      	ldr	r2, [pc, #316]	@ (80011d8 <HAL_GPIO_Init+0x308>)
 800109a:	4293      	cmp	r3, r2
 800109c:	d025      	beq.n	80010ea <HAL_GPIO_Init+0x21a>
 800109e:	687b      	ldr	r3, [r7, #4]
 80010a0:	4a4e      	ldr	r2, [pc, #312]	@ (80011dc <HAL_GPIO_Init+0x30c>)
 80010a2:	4293      	cmp	r3, r2
 80010a4:	d01f      	beq.n	80010e6 <HAL_GPIO_Init+0x216>
 80010a6:	687b      	ldr	r3, [r7, #4]
 80010a8:	4a4d      	ldr	r2, [pc, #308]	@ (80011e0 <HAL_GPIO_Init+0x310>)
 80010aa:	4293      	cmp	r3, r2
 80010ac:	d019      	beq.n	80010e2 <HAL_GPIO_Init+0x212>
 80010ae:	687b      	ldr	r3, [r7, #4]
 80010b0:	4a4c      	ldr	r2, [pc, #304]	@ (80011e4 <HAL_GPIO_Init+0x314>)
 80010b2:	4293      	cmp	r3, r2
 80010b4:	d013      	beq.n	80010de <HAL_GPIO_Init+0x20e>
 80010b6:	687b      	ldr	r3, [r7, #4]
 80010b8:	4a4b      	ldr	r2, [pc, #300]	@ (80011e8 <HAL_GPIO_Init+0x318>)
 80010ba:	4293      	cmp	r3, r2
 80010bc:	d00d      	beq.n	80010da <HAL_GPIO_Init+0x20a>
 80010be:	687b      	ldr	r3, [r7, #4]
 80010c0:	4a4a      	ldr	r2, [pc, #296]	@ (80011ec <HAL_GPIO_Init+0x31c>)
 80010c2:	4293      	cmp	r3, r2
 80010c4:	d007      	beq.n	80010d6 <HAL_GPIO_Init+0x206>
 80010c6:	687b      	ldr	r3, [r7, #4]
 80010c8:	4a49      	ldr	r2, [pc, #292]	@ (80011f0 <HAL_GPIO_Init+0x320>)
 80010ca:	4293      	cmp	r3, r2
 80010cc:	d101      	bne.n	80010d2 <HAL_GPIO_Init+0x202>
 80010ce:	2306      	movs	r3, #6
 80010d0:	e00c      	b.n	80010ec <HAL_GPIO_Init+0x21c>
 80010d2:	2307      	movs	r3, #7
 80010d4:	e00a      	b.n	80010ec <HAL_GPIO_Init+0x21c>
 80010d6:	2305      	movs	r3, #5
 80010d8:	e008      	b.n	80010ec <HAL_GPIO_Init+0x21c>
 80010da:	2304      	movs	r3, #4
 80010dc:	e006      	b.n	80010ec <HAL_GPIO_Init+0x21c>
 80010de:	2303      	movs	r3, #3
 80010e0:	e004      	b.n	80010ec <HAL_GPIO_Init+0x21c>
 80010e2:	2302      	movs	r3, #2
 80010e4:	e002      	b.n	80010ec <HAL_GPIO_Init+0x21c>
 80010e6:	2301      	movs	r3, #1
 80010e8:	e000      	b.n	80010ec <HAL_GPIO_Init+0x21c>
 80010ea:	2300      	movs	r3, #0
 80010ec:	69fa      	ldr	r2, [r7, #28]
 80010ee:	f002 0203 	and.w	r2, r2, #3
 80010f2:	0092      	lsls	r2, r2, #2
 80010f4:	4093      	lsls	r3, r2
 80010f6:	69ba      	ldr	r2, [r7, #24]
 80010f8:	4313      	orrs	r3, r2
 80010fa:	61bb      	str	r3, [r7, #24]
        SYSCFG->EXTICR[position >> 2U] = temp;
 80010fc:	4935      	ldr	r1, [pc, #212]	@ (80011d4 <HAL_GPIO_Init+0x304>)
 80010fe:	69fb      	ldr	r3, [r7, #28]
 8001100:	089b      	lsrs	r3, r3, #2
 8001102:	3302      	adds	r3, #2
 8001104:	69ba      	ldr	r2, [r7, #24]
 8001106:	f841 2023 	str.w	r2, [r1, r3, lsl #2]

        /* Clear Rising Falling edge configuration */
        temp = EXTI->RTSR;
 800110a:	4b3a      	ldr	r3, [pc, #232]	@ (80011f4 <HAL_GPIO_Init+0x324>)
 800110c:	689b      	ldr	r3, [r3, #8]
 800110e:	61bb      	str	r3, [r7, #24]
        temp &= ~((uint32_t)iocurrent);
 8001110:	693b      	ldr	r3, [r7, #16]
 8001112:	43db      	mvns	r3, r3
 8001114:	69ba      	ldr	r2, [r7, #24]
 8001116:	4013      	ands	r3, r2
 8001118:	61bb      	str	r3, [r7, #24]
        if((GPIO_Init->Mode & TRIGGER_RISING) != 0x00U)
 800111a:	683b      	ldr	r3, [r7, #0]
 800111c:	685b      	ldr	r3, [r3, #4]
 800111e:	f403 1380 	and.w	r3, r3, #1048576	@ 0x100000
 8001122:	2b00      	cmp	r3, #0
 8001124:	d003      	beq.n	800112e <HAL_GPIO_Init+0x25e>
        {
          temp |= iocurrent;
 8001126:	69ba      	ldr	r2, [r7, #24]
 8001128:	693b      	ldr	r3, [r7, #16]
 800112a:	4313      	orrs	r3, r2
 800112c:	61bb      	str	r3, [r7, #24]
        }
        EXTI->RTSR = temp;
 800112e:	4a31      	ldr	r2, [pc, #196]	@ (80011f4 <HAL_GPIO_Init+0x324>)
 8001130:	69bb      	ldr	r3, [r7, #24]
 8001132:	6093      	str	r3, [r2, #8]

        temp = EXTI->FTSR;
 8001134:	4b2f      	ldr	r3, [pc, #188]	@ (80011f4 <HAL_GPIO_Init+0x324>)
 8001136:	68db      	ldr	r3, [r3, #12]
 8001138:	61bb      	str	r3, [r7, #24]
        temp &= ~((uint32_t)iocurrent);
 800113a:	693b      	ldr	r3, [r7, #16]
 800113c:	43db      	mvns	r3, r3
 800113e:	69ba      	ldr	r2, [r7, #24]
 8001140:	4013      	ands	r3, r2
 8001142:	61bb      	str	r3, [r7, #24]
        if((GPIO_Init->Mode & TRIGGER_FALLING) != 0x00U)
 8001144:	683b      	ldr	r3, [r7, #0]
 8001146:	685b      	ldr	r3, [r3, #4]
 8001148:	f403 1300 	and.w	r3, r3, #2097152	@ 0x200000
 800114c:	2b00      	cmp	r3, #0
 800114e:	d003      	beq.n	8001158 <HAL_GPIO_Init+0x288>
        {
          temp |= iocurrent;
 8001150:	69ba      	ldr	r2, [r7, #24]
 8001152:	693b      	ldr	r3, [r7, #16]
 8001154:	4313      	orrs	r3, r2
 8001156:	61bb      	str	r3, [r7, #24]
        }
        EXTI->FTSR = temp;
 8001158:	4a26      	ldr	r2, [pc, #152]	@ (80011f4 <HAL_GPIO_Init+0x324>)
 800115a:	69bb      	ldr	r3, [r7, #24]
 800115c:	60d3      	str	r3, [r2, #12]

        temp = EXTI->EMR;
 800115e:	4b25      	ldr	r3, [pc, #148]	@ (80011f4 <HAL_GPIO_Init+0x324>)
 8001160:	685b      	ldr	r3, [r3, #4]
 8001162:	61bb      	str	r3, [r7, #24]
        temp &= ~((uint32_t)iocurrent);
 8001164:	693b      	ldr	r3, [r7, #16]
 8001166:	43db      	mvns	r3, r3
 8001168:	69ba      	ldr	r2, [r7, #24]
 800116a:	4013      	ands	r3, r2
 800116c:	61bb      	str	r3, [r7, #24]
        if((GPIO_Init->Mode & EXTI_EVT) != 0x00U)
 800116e:	683b      	ldr	r3, [r7, #0]
 8001170:	685b      	ldr	r3, [r3, #4]
 8001172:	f403 3300 	and.w	r3, r3, #131072	@ 0x20000
 8001176:	2b00      	cmp	r3, #0
 8001178:	d003      	beq.n	8001182 <HAL_GPIO_Init+0x2b2>
        {
          temp |= iocurrent;
 800117a:	69ba      	ldr	r2, [r7, #24]
 800117c:	693b      	ldr	r3, [r7, #16]
 800117e:	4313      	orrs	r3, r2
 8001180:	61bb      	str	r3, [r7, #24]
        }
        EXTI->EMR = temp;
 8001182:	4a1c      	ldr	r2, [pc, #112]	@ (80011f4 <HAL_GPIO_Init+0x324>)
 8001184:	69bb      	ldr	r3, [r7, #24]
 8001186:	6053      	str	r3, [r2, #4]

        /* Clear EXTI line configuration */
        temp = EXTI->IMR;
 8001188:	4b1a      	ldr	r3, [pc, #104]	@ (80011f4 <HAL_GPIO_Init+0x324>)
 800118a:	681b      	ldr	r3, [r3, #0]
 800118c:	61bb      	str	r3, [r7, #24]
        temp &= ~((uint32_t)iocurrent);
 800118e:	693b      	ldr	r3, [r7, #16]
 8001190:	43db      	mvns	r3, r3
 8001192:	69ba      	ldr	r2, [r7, #24]
 8001194:	4013      	ands	r3, r2
 8001196:	61bb      	str	r3, [r7, #24]
        if((GPIO_Init->Mode & EXTI_IT) != 0x00U)
 8001198:	683b      	ldr	r3, [r7, #0]
 800119a:	685b      	ldr	r3, [r3, #4]
 800119c:	f403 3380 	and.w	r3, r3, #65536	@ 0x10000
 80011a0:	2b00      	cmp	r3, #0
 80011a2:	d003      	beq.n	80011ac <HAL_GPIO_Init+0x2dc>
        {
          temp |= iocurrent;
 80011a4:	69ba      	ldr	r2, [r7, #24]
 80011a6:	693b      	ldr	r3, [r7, #16]
 80011a8:	4313      	orrs	r3, r2
 80011aa:	61bb      	str	r3, [r7, #24]
        }
        EXTI->IMR = temp;
 80011ac:	4a11      	ldr	r2, [pc, #68]	@ (80011f4 <HAL_GPIO_Init+0x324>)
 80011ae:	69bb      	ldr	r3, [r7, #24]
 80011b0:	6013      	str	r3, [r2, #0]
  for(position = 0U; position < GPIO_NUMBER; position++)
 80011b2:	69fb      	ldr	r3, [r7, #28]
 80011b4:	3301      	adds	r3, #1
 80011b6:	61fb      	str	r3, [r7, #28]
 80011b8:	69fb      	ldr	r3, [r7, #28]
 80011ba:	2b0f      	cmp	r3, #15
 80011bc:	f67f ae96 	bls.w	8000eec <HAL_GPIO_Init+0x1c>
      }
    }
  }
}
 80011c0:	bf00      	nop
 80011c2:	bf00      	nop
 80011c4:	3724      	adds	r7, #36	@ 0x24
 80011c6:	46bd      	mov	sp, r7
 80011c8:	f85d 7b04 	ldr.w	r7, [sp], #4
 80011cc:	4770      	bx	lr
 80011ce:	bf00      	nop
 80011d0:	40023800 	.word	0x40023800
 80011d4:	40013800 	.word	0x40013800
 80011d8:	40020000 	.word	0x40020000
 80011dc:	40020400 	.word	0x40020400
 80011e0:	40020800 	.word	0x40020800
 80011e4:	40020c00 	.word	0x40020c00
 80011e8:	40021000 	.word	0x40021000
 80011ec:	40021400 	.word	0x40021400
 80011f0:	40021800 	.word	0x40021800
 80011f4:	40013c00 	.word	0x40013c00

080011f8 <HAL_RCC_ClockConfig>:
  *         HPRE[3:0] bits to ensure that HCLK not exceed the maximum allowed frequency
  *         (for more details refer to section above "Initialization/de-initialization functions")
  * @retval None
  */
HAL_StatusTypeDef HAL_RCC_ClockConfig(RCC_ClkInitTypeDef  *RCC_ClkInitStruct, uint32_t FLatency)
{
 80011f8:	b580      	push	{r7, lr}
 80011fa:	b084      	sub	sp, #16
 80011fc:	af00      	add	r7, sp, #0
 80011fe:	6078      	str	r0, [r7, #4]
 8001200:	6039      	str	r1, [r7, #0]
  uint32_t tickstart;

  /* Check Null pointer */
  if (RCC_ClkInitStruct == NULL)
 8001202:	687b      	ldr	r3, [r7, #4]
 8001204:	2b00      	cmp	r3, #0
 8001206:	d101      	bne.n	800120c <HAL_RCC_ClockConfig+0x14>
  {
    return HAL_ERROR;
 8001208:	2301      	movs	r3, #1
 800120a:	e0cc      	b.n	80013a6 <HAL_RCC_ClockConfig+0x1ae>
  /* To correctly read data from FLASH memory, the number of wait states (LATENCY)
    must be correctly programmed according to the frequency of the CPU clock
    (HCLK) and the supply voltage of the device. */

  /* Increasing the number of wait states because of higher CPU frequency */
  if (FLatency > __HAL_FLASH_GET_LATENCY())
 800120c:	4b68      	ldr	r3, [pc, #416]	@ (80013b0 <HAL_RCC_ClockConfig+0x1b8>)
 800120e:	681b      	ldr	r3, [r3, #0]
 8001210:	f003 030f 	and.w	r3, r3, #15
 8001214:	683a      	ldr	r2, [r7, #0]
 8001216:	429a      	cmp	r2, r3
 8001218:	d90c      	bls.n	8001234 <HAL_RCC_ClockConfig+0x3c>
  {
    /* Program the new number of wait states to the LATENCY bits in the FLASH_ACR register */
    __HAL_FLASH_SET_LATENCY(FLatency);
 800121a:	4b65      	ldr	r3, [pc, #404]	@ (80013b0 <HAL_RCC_ClockConfig+0x1b8>)
 800121c:	683a      	ldr	r2, [r7, #0]
 800121e:	b2d2      	uxtb	r2, r2
 8001220:	701a      	strb	r2, [r3, #0]

    /* Check that the new number of wait states is taken into account to access the Flash
    memory by reading the FLASH_ACR register */
    if (__HAL_FLASH_GET_LATENCY() != FLatency)
 8001222:	4b63      	ldr	r3, [pc, #396]	@ (80013b0 <HAL_RCC_ClockConfig+0x1b8>)
 8001224:	681b      	ldr	r3, [r3, #0]
 8001226:	f003 030f 	and.w	r3, r3, #15
 800122a:	683a      	ldr	r2, [r7, #0]
 800122c:	429a      	cmp	r2, r3
 800122e:	d001      	beq.n	8001234 <HAL_RCC_ClockConfig+0x3c>
    {
      return HAL_ERROR;
 8001230:	2301      	movs	r3, #1
 8001232:	e0b8      	b.n	80013a6 <HAL_RCC_ClockConfig+0x1ae>
    }
  }

  /*-------------------------- HCLK Configuration --------------------------*/
  if (((RCC_ClkInitStruct->ClockType) & RCC_CLOCKTYPE_HCLK) == RCC_CLOCKTYPE_HCLK)
 8001234:	687b      	ldr	r3, [r7, #4]
 8001236:	681b      	ldr	r3, [r3, #0]
 8001238:	f003 0302 	and.w	r3, r3, #2
 800123c:	2b00      	cmp	r3, #0
 800123e:	d020      	beq.n	8001282 <HAL_RCC_ClockConfig+0x8a>
  {
    /* Set the highest APBx dividers in order to ensure that we do not go through
       a non-spec phase whatever we decrease or increase HCLK. */
    if (((RCC_ClkInitStruct->ClockType) & RCC_CLOCKTYPE_PCLK1) == RCC_CLOCKTYPE_PCLK1)
 8001240:	687b      	ldr	r3, [r7, #4]
 8001242:	681b      	ldr	r3, [r3, #0]
 8001244:	f003 0304 	and.w	r3, r3, #4
 8001248:	2b00      	cmp	r3, #0
 800124a:	d005      	beq.n	8001258 <HAL_RCC_ClockConfig+0x60>
    {
      MODIFY_REG(RCC->CFGR, RCC_CFGR_PPRE1, RCC_HCLK_DIV16);
 800124c:	4b59      	ldr	r3, [pc, #356]	@ (80013b4 <HAL_RCC_ClockConfig+0x1bc>)
 800124e:	689b      	ldr	r3, [r3, #8]
 8001250:	4a58      	ldr	r2, [pc, #352]	@ (80013b4 <HAL_RCC_ClockConfig+0x1bc>)
 8001252:	f443 53e0 	orr.w	r3, r3, #7168	@ 0x1c00
 8001256:	6093      	str	r3, [r2, #8]
    }

    if (((RCC_ClkInitStruct->ClockType) & RCC_CLOCKTYPE_PCLK2) == RCC_CLOCKTYPE_PCLK2)
 8001258:	687b      	ldr	r3, [r7, #4]
 800125a:	681b      	ldr	r3, [r3, #0]
 800125c:	f003 0308 	and.w	r3, r3, #8
 8001260:	2b00      	cmp	r3, #0
 8001262:	d005      	beq.n	8001270 <HAL_RCC_ClockConfig+0x78>
    {
      MODIFY_REG(RCC->CFGR, RCC_CFGR_PPRE2, (RCC_HCLK_DIV16 << 3));
 8001264:	4b53      	ldr	r3, [pc, #332]	@ (80013b4 <HAL_RCC_ClockConfig+0x1bc>)
 8001266:	689b      	ldr	r3, [r3, #8]
 8001268:	4a52      	ldr	r2, [pc, #328]	@ (80013b4 <HAL_RCC_ClockConfig+0x1bc>)
 800126a:	f443 4360 	orr.w	r3, r3, #57344	@ 0xe000
 800126e:	6093      	str	r3, [r2, #8]
    }

    assert_param(IS_RCC_HCLK(RCC_ClkInitStruct->AHBCLKDivider));
    MODIFY_REG(RCC->CFGR, RCC_CFGR_HPRE, RCC_ClkInitStruct->AHBCLKDivider);
 8001270:	4b50      	ldr	r3, [pc, #320]	@ (80013b4 <HAL_RCC_ClockConfig+0x1bc>)
 8001272:	689b      	ldr	r3, [r3, #8]
 8001274:	f023 02f0 	bic.w	r2, r3, #240	@ 0xf0
 8001278:	687b      	ldr	r3, [r7, #4]
 800127a:	689b      	ldr	r3, [r3, #8]
 800127c:	494d      	ldr	r1, [pc, #308]	@ (80013b4 <HAL_RCC_ClockConfig+0x1bc>)
 800127e:	4313      	orrs	r3, r2
 8001280:	608b      	str	r3, [r1, #8]
  }

  /*------------------------- SYSCLK Configuration ---------------------------*/
  if (((RCC_ClkInitStruct->ClockType) & RCC_CLOCKTYPE_SYSCLK) == RCC_CLOCKTYPE_SYSCLK)
 8001282:	687b      	ldr	r3, [r7, #4]
 8001284:	681b      	ldr	r3, [r3, #0]
 8001286:	f003 0301 	and.w	r3, r3, #1
 800128a:	2b00      	cmp	r3, #0
 800128c:	d044      	beq.n	8001318 <HAL_RCC_ClockConfig+0x120>
  {
    assert_param(IS_RCC_SYSCLKSOURCE(RCC_ClkInitStruct->SYSCLKSource));

    /* HSE is selected as System Clock Source */
    if (RCC_ClkInitStruct->SYSCLKSource == RCC_SYSCLKSOURCE_HSE)
 800128e:	687b      	ldr	r3, [r7, #4]
 8001290:	685b      	ldr	r3, [r3, #4]
 8001292:	2b01      	cmp	r3, #1
 8001294:	d107      	bne.n	80012a6 <HAL_RCC_ClockConfig+0xae>
    {
      /* Check the HSE ready flag */
      if (__HAL_RCC_GET_FLAG(RCC_FLAG_HSERDY) == RESET)
 8001296:	4b47      	ldr	r3, [pc, #284]	@ (80013b4 <HAL_RCC_ClockConfig+0x1bc>)
 8001298:	681b      	ldr	r3, [r3, #0]
 800129a:	f403 3300 	and.w	r3, r3, #131072	@ 0x20000
 800129e:	2b00      	cmp	r3, #0
 80012a0:	d119      	bne.n	80012d6 <HAL_RCC_ClockConfig+0xde>
      {
        return HAL_ERROR;
 80012a2:	2301      	movs	r3, #1
 80012a4:	e07f      	b.n	80013a6 <HAL_RCC_ClockConfig+0x1ae>
      }
    }
    /* PLL is selected as System Clock Source */
    else if ((RCC_ClkInitStruct->SYSCLKSource == RCC_SYSCLKSOURCE_PLLCLK)   ||
 80012a6:	687b      	ldr	r3, [r7, #4]
 80012a8:	685b      	ldr	r3, [r3, #4]
 80012aa:	2b02      	cmp	r3, #2
 80012ac:	d003      	beq.n	80012b6 <HAL_RCC_ClockConfig+0xbe>
             (RCC_ClkInitStruct->SYSCLKSource == RCC_SYSCLKSOURCE_PLLRCLK))
 80012ae:	687b      	ldr	r3, [r7, #4]
 80012b0:	685b      	ldr	r3, [r3, #4]
    else if ((RCC_ClkInitStruct->SYSCLKSource == RCC_SYSCLKSOURCE_PLLCLK)   ||
 80012b2:	2b03      	cmp	r3, #3
 80012b4:	d107      	bne.n	80012c6 <HAL_RCC_ClockConfig+0xce>
    {
      /* Check the PLL ready flag */
      if (__HAL_RCC_GET_FLAG(RCC_FLAG_PLLRDY) == RESET)
 80012b6:	4b3f      	ldr	r3, [pc, #252]	@ (80013b4 <HAL_RCC_ClockConfig+0x1bc>)
 80012b8:	681b      	ldr	r3, [r3, #0]
 80012ba:	f003 7300 	and.w	r3, r3, #33554432	@ 0x2000000
 80012be:	2b00      	cmp	r3, #0
 80012c0:	d109      	bne.n	80012d6 <HAL_RCC_ClockConfig+0xde>
      {
        return HAL_ERROR;
 80012c2:	2301      	movs	r3, #1
 80012c4:	e06f      	b.n	80013a6 <HAL_RCC_ClockConfig+0x1ae>
    }
    /* HSI is selected as System Clock Source */
    else
    {
      /* Check the HSI ready flag */
      if (__HAL_RCC_GET_FLAG(RCC_FLAG_HSIRDY) == RESET)
 80012c6:	4b3b      	ldr	r3, [pc, #236]	@ (80013b4 <HAL_RCC_ClockConfig+0x1bc>)
 80012c8:	681b      	ldr	r3, [r3, #0]
 80012ca:	f003 0302 	and.w	r3, r3, #2
 80012ce:	2b00      	cmp	r3, #0
 80012d0:	d101      	bne.n	80012d6 <HAL_RCC_ClockConfig+0xde>
      {
        return HAL_ERROR;
 80012d2:	2301      	movs	r3, #1
 80012d4:	e067      	b.n	80013a6 <HAL_RCC_ClockConfig+0x1ae>
      }
    }

    __HAL_RCC_SYSCLK_CONFIG(RCC_ClkInitStruct->SYSCLKSource);
 80012d6:	4b37      	ldr	r3, [pc, #220]	@ (80013b4 <HAL_RCC_ClockConfig+0x1bc>)
 80012d8:	689b      	ldr	r3, [r3, #8]
 80012da:	f023 0203 	bic.w	r2, r3, #3
 80012de:	687b      	ldr	r3, [r7, #4]
 80012e0:	685b      	ldr	r3, [r3, #4]
 80012e2:	4934      	ldr	r1, [pc, #208]	@ (80013b4 <HAL_RCC_ClockConfig+0x1bc>)
 80012e4:	4313      	orrs	r3, r2
 80012e6:	608b      	str	r3, [r1, #8]

    /* Get Start Tick */
    tickstart = HAL_GetTick();
 80012e8:	f7ff fcdc 	bl	8000ca4 <HAL_GetTick>
 80012ec:	60f8      	str	r0, [r7, #12]

    while (__HAL_RCC_GET_SYSCLK_SOURCE() != (RCC_ClkInitStruct->SYSCLKSource << RCC_CFGR_SWS_Pos))
 80012ee:	e00a      	b.n	8001306 <HAL_RCC_ClockConfig+0x10e>
    {
      if ((HAL_GetTick() - tickstart) > CLOCKSWITCH_TIMEOUT_VALUE)
 80012f0:	f7ff fcd8 	bl	8000ca4 <HAL_GetTick>
 80012f4:	4602      	mov	r2, r0
 80012f6:	68fb      	ldr	r3, [r7, #12]
 80012f8:	1ad3      	subs	r3, r2, r3
 80012fa:	f241 3288 	movw	r2, #5000	@ 0x1388
 80012fe:	4293      	cmp	r3, r2
 8001300:	d901      	bls.n	8001306 <HAL_RCC_ClockConfig+0x10e>
      {
        return HAL_TIMEOUT;
 8001302:	2303      	movs	r3, #3
 8001304:	e04f      	b.n	80013a6 <HAL_RCC_ClockConfig+0x1ae>
    while (__HAL_RCC_GET_SYSCLK_SOURCE() != (RCC_ClkInitStruct->SYSCLKSource << RCC_CFGR_SWS_Pos))
 8001306:	4b2b      	ldr	r3, [pc, #172]	@ (80013b4 <HAL_RCC_ClockConfig+0x1bc>)
 8001308:	689b      	ldr	r3, [r3, #8]
 800130a:	f003 020c 	and.w	r2, r3, #12
 800130e:	687b      	ldr	r3, [r7, #4]
 8001310:	685b      	ldr	r3, [r3, #4]
 8001312:	009b      	lsls	r3, r3, #2
 8001314:	429a      	cmp	r2, r3
 8001316:	d1eb      	bne.n	80012f0 <HAL_RCC_ClockConfig+0xf8>
      }
    }
  }

  /* Decreasing the number of wait states because of lower CPU frequency */
  if (FLatency < __HAL_FLASH_GET_LATENCY())
 8001318:	4b25      	ldr	r3, [pc, #148]	@ (80013b0 <HAL_RCC_ClockConfig+0x1b8>)
 800131a:	681b      	ldr	r3, [r3, #0]
 800131c:	f003 030f 	and.w	r3, r3, #15
 8001320:	683a      	ldr	r2, [r7, #0]
 8001322:	429a      	cmp	r2, r3
 8001324:	d20c      	bcs.n	8001340 <HAL_RCC_ClockConfig+0x148>
  {
    /* Program the new number of wait states to the LATENCY bits in the FLASH_ACR register */
    __HAL_FLASH_SET_LATENCY(FLatency);
 8001326:	4b22      	ldr	r3, [pc, #136]	@ (80013b0 <HAL_RCC_ClockConfig+0x1b8>)
 8001328:	683a      	ldr	r2, [r7, #0]
 800132a:	b2d2      	uxtb	r2, r2
 800132c:	701a      	strb	r2, [r3, #0]

    /* Check that the new number of wait states is taken into account to access the Flash
    memory by reading the FLASH_ACR register */
    if (__HAL_FLASH_GET_LATENCY() != FLatency)
 800132e:	4b20      	ldr	r3, [pc, #128]	@ (80013b0 <HAL_RCC_ClockConfig+0x1b8>)
 8001330:	681b      	ldr	r3, [r3, #0]
 8001332:	f003 030f 	and.w	r3, r3, #15
 8001336:	683a      	ldr	r2, [r7, #0]
 8001338:	429a      	cmp	r2, r3
 800133a:	d001      	beq.n	8001340 <HAL_RCC_ClockConfig+0x148>
    {
      return HAL_ERROR;
 800133c:	2301      	movs	r3, #1
 800133e:	e032      	b.n	80013a6 <HAL_RCC_ClockConfig+0x1ae>
    }
  }

  /*-------------------------- PCLK1 Configuration ---------------------------*/
  if (((RCC_ClkInitStruct->ClockType) & RCC_CLOCKTYPE_PCLK1) == RCC_CLOCKTYPE_PCLK1)
 8001340:	687b      	ldr	r3, [r7, #4]
 8001342:	681b      	ldr	r3, [r3, #0]
 8001344:	f003 0304 	and.w	r3, r3, #4
 8001348:	2b00      	cmp	r3, #0
 800134a:	d008      	beq.n	800135e <HAL_RCC_ClockConfig+0x166>
  {
    assert_param(IS_RCC_PCLK(RCC_ClkInitStruct->APB1CLKDivider));
    MODIFY_REG(RCC->CFGR, RCC_CFGR_PPRE1, RCC_ClkInitStruct->APB1CLKDivider);
 800134c:	4b19      	ldr	r3, [pc, #100]	@ (80013b4 <HAL_RCC_ClockConfig+0x1bc>)
 800134e:	689b      	ldr	r3, [r3, #8]
 8001350:	f423 52e0 	bic.w	r2, r3, #7168	@ 0x1c00
 8001354:	687b      	ldr	r3, [r7, #4]
 8001356:	68db      	ldr	r3, [r3, #12]
 8001358:	4916      	ldr	r1, [pc, #88]	@ (80013b4 <HAL_RCC_ClockConfig+0x1bc>)
 800135a:	4313      	orrs	r3, r2
 800135c:	608b      	str	r3, [r1, #8]
  }

  /*-------------------------- PCLK2 Configuration ---------------------------*/
  if (((RCC_ClkInitStruct->ClockType) & RCC_CLOCKTYPE_PCLK2) == RCC_CLOCKTYPE_PCLK2)
 800135e:	687b      	ldr	r3, [r7, #4]
 8001360:	681b      	ldr	r3, [r3, #0]
 8001362:	f003 0308 	and.w	r3, r3, #8
 8001366:	2b00      	cmp	r3, #0
 8001368:	d009      	beq.n	800137e <HAL_RCC_ClockConfig+0x186>
  {
    assert_param(IS_RCC_PCLK(RCC_ClkInitStruct->APB2CLKDivider));
    MODIFY_REG(RCC->CFGR, RCC_CFGR_PPRE2, ((RCC_ClkInitStruct->APB2CLKDivider) << 3U));
 800136a:	4b12      	ldr	r3, [pc, #72]	@ (80013b4 <HAL_RCC_ClockConfig+0x1bc>)
 800136c:	689b      	ldr	r3, [r3, #8]
 800136e:	f423 4260 	bic.w	r2, r3, #57344	@ 0xe000
 8001372:	687b      	ldr	r3, [r7, #4]
 8001374:	691b      	ldr	r3, [r3, #16]
 8001376:	00db      	lsls	r3, r3, #3
 8001378:	490e      	ldr	r1, [pc, #56]	@ (80013b4 <HAL_RCC_ClockConfig+0x1bc>)
 800137a:	4313      	orrs	r3, r2
 800137c:	608b      	str	r3, [r1, #8]
  }

  /* Update the SystemCoreClock global variable */
  SystemCoreClock = HAL_RCC_GetSysClockFreq() >> AHBPrescTable[(RCC->CFGR & RCC_CFGR_HPRE) >> RCC_CFGR_HPRE_Pos];
 800137e:	f000 f855 	bl	800142c <HAL_RCC_GetSysClockFreq>
 8001382:	4602      	mov	r2, r0
 8001384:	4b0b      	ldr	r3, [pc, #44]	@ (80013b4 <HAL_RCC_ClockConfig+0x1bc>)
 8001386:	689b      	ldr	r3, [r3, #8]
 8001388:	091b      	lsrs	r3, r3, #4
 800138a:	f003 030f 	and.w	r3, r3, #15
 800138e:	490a      	ldr	r1, [pc, #40]	@ (80013b8 <HAL_RCC_ClockConfig+0x1c0>)
 8001390:	5ccb      	ldrb	r3, [r1, r3]
 8001392:	fa22 f303 	lsr.w	r3, r2, r3
 8001396:	4a09      	ldr	r2, [pc, #36]	@ (80013bc <HAL_RCC_ClockConfig+0x1c4>)
 8001398:	6013      	str	r3, [r2, #0]

  /* Configure the source of time base considering new system clocks settings */
  HAL_InitTick(uwTickPrio);
 800139a:	4b09      	ldr	r3, [pc, #36]	@ (80013c0 <HAL_RCC_ClockConfig+0x1c8>)
 800139c:	681b      	ldr	r3, [r3, #0]
 800139e:	4618      	mov	r0, r3
 80013a0:	f7ff fc3c 	bl	8000c1c <HAL_InitTick>

  return HAL_OK;
 80013a4:	2300      	movs	r3, #0
}
 80013a6:	4618      	mov	r0, r3
 80013a8:	3710      	adds	r7, #16
 80013aa:	46bd      	mov	sp, r7
 80013ac:	bd80      	pop	{r7, pc}
 80013ae:	bf00      	nop
 80013b0:	40023c00 	.word	0x40023c00
 80013b4:	40023800 	.word	0x40023800
 80013b8:	080030d0 	.word	0x080030d0
 80013bc:	20000000 	.word	0x20000000
 80013c0:	20000004 	.word	0x20000004

080013c4 <HAL_RCC_GetHCLKFreq>:
  * @note   The SystemCoreClock CMSIS variable is used to store System Clock Frequency
  *         and updated within this function
  * @retval HCLK frequency
  */
uint32_t HAL_RCC_GetHCLKFreq(void)
{
 80013c4:	b480      	push	{r7}
 80013c6:	af00      	add	r7, sp, #0
  return SystemCoreClock;
 80013c8:	4b03      	ldr	r3, [pc, #12]	@ (80013d8 <HAL_RCC_GetHCLKFreq+0x14>)
 80013ca:	681b      	ldr	r3, [r3, #0]
}
 80013cc:	4618      	mov	r0, r3
 80013ce:	46bd      	mov	sp, r7
 80013d0:	f85d 7b04 	ldr.w	r7, [sp], #4
 80013d4:	4770      	bx	lr
 80013d6:	bf00      	nop
 80013d8:	20000000 	.word	0x20000000

080013dc <HAL_RCC_GetPCLK1Freq>:
  * @note   Each time PCLK1 changes, this function must be called to update the
  *         right PCLK1 value. Otherwise, any configuration based on this function will be incorrect.
  * @retval PCLK1 frequency
  */
uint32_t HAL_RCC_GetPCLK1Freq(void)
{
 80013dc:	b580      	push	{r7, lr}
 80013de:	af00      	add	r7, sp, #0
  /* Get HCLK source and Compute PCLK1 frequency ---------------------------*/
  return (HAL_RCC_GetHCLKFreq() >> APBPrescTable[(RCC->CFGR & RCC_CFGR_PPRE1) >> RCC_CFGR_PPRE1_Pos]);
 80013e0:	f7ff fff0 	bl	80013c4 <HAL_RCC_GetHCLKFreq>
 80013e4:	4602      	mov	r2, r0
 80013e6:	4b05      	ldr	r3, [pc, #20]	@ (80013fc <HAL_RCC_GetPCLK1Freq+0x20>)
 80013e8:	689b      	ldr	r3, [r3, #8]
 80013ea:	0a9b      	lsrs	r3, r3, #10
 80013ec:	f003 0307 	and.w	r3, r3, #7
 80013f0:	4903      	ldr	r1, [pc, #12]	@ (8001400 <HAL_RCC_GetPCLK1Freq+0x24>)
 80013f2:	5ccb      	ldrb	r3, [r1, r3]
 80013f4:	fa22 f303 	lsr.w	r3, r2, r3
}
 80013f8:	4618      	mov	r0, r3
 80013fa:	bd80      	pop	{r7, pc}
 80013fc:	40023800 	.word	0x40023800
 8001400:	080030e0 	.word	0x080030e0

08001404 <HAL_RCC_GetPCLK2Freq>:
  * @note   Each time PCLK2 changes, this function must be called to update the
  *         right PCLK2 value. Otherwise, any configuration based on this function will be incorrect.
  * @retval PCLK2 frequency
  */
uint32_t HAL_RCC_GetPCLK2Freq(void)
{
 8001404:	b580      	push	{r7, lr}
 8001406:	af00      	add	r7, sp, #0
  /* Get HCLK source and Compute PCLK2 frequency ---------------------------*/
  return (HAL_RCC_GetHCLKFreq() >> APBPrescTable[(RCC->CFGR & RCC_CFGR_PPRE2) >> RCC_CFGR_PPRE2_Pos]);
 8001408:	f7ff ffdc 	bl	80013c4 <HAL_RCC_GetHCLKFreq>
 800140c:	4602      	mov	r2, r0
 800140e:	4b05      	ldr	r3, [pc, #20]	@ (8001424 <HAL_RCC_GetPCLK2Freq+0x20>)
 8001410:	689b      	ldr	r3, [r3, #8]
 8001412:	0b5b      	lsrs	r3, r3, #13
 8001414:	f003 0307 	and.w	r3, r3, #7
 8001418:	4903      	ldr	r1, [pc, #12]	@ (8001428 <HAL_RCC_GetPCLK2Freq+0x24>)
 800141a:	5ccb      	ldrb	r3, [r1, r3]
 800141c:	fa22 f303 	lsr.w	r3, r2, r3
}
 8001420:	4618      	mov	r0, r3
 8001422:	bd80      	pop	{r7, pc}
 8001424:	40023800 	.word	0x40023800
 8001428:	080030e0 	.word	0x080030e0

0800142c <HAL_RCC_GetSysClockFreq>:
  *
  *
  * @retval SYSCLK frequency
  */
uint32_t HAL_RCC_GetSysClockFreq(void)
{
 800142c:	e92d 4fb0 	stmdb	sp!, {r4, r5, r7, r8, r9, sl, fp, lr}
 8001430:	b0ae      	sub	sp, #184	@ 0xb8
 8001432:	af00      	add	r7, sp, #0
  uint32_t pllm = 0U;
 8001434:	2300      	movs	r3, #0
 8001436:	f8c7 30ac 	str.w	r3, [r7, #172]	@ 0xac
  uint32_t pllvco = 0U;
 800143a:	2300      	movs	r3, #0
 800143c:	f8c7 30b4 	str.w	r3, [r7, #180]	@ 0xb4
  uint32_t pllp = 0U;
 8001440:	2300      	movs	r3, #0
 8001442:	f8c7 30a8 	str.w	r3, [r7, #168]	@ 0xa8
  uint32_t pllr = 0U;
 8001446:	2300      	movs	r3, #0
 8001448:	f8c7 30a4 	str.w	r3, [r7, #164]	@ 0xa4
  uint32_t sysclockfreq = 0U;
 800144c:	2300      	movs	r3, #0
 800144e:	f8c7 30b0 	str.w	r3, [r7, #176]	@ 0xb0

  /* Get SYSCLK source -------------------------------------------------------*/
  switch (RCC->CFGR & RCC_CFGR_SWS)
 8001452:	4bcb      	ldr	r3, [pc, #812]	@ (8001780 <HAL_RCC_GetSysClockFreq+0x354>)
 8001454:	689b      	ldr	r3, [r3, #8]
 8001456:	f003 030c 	and.w	r3, r3, #12
 800145a:	2b0c      	cmp	r3, #12
 800145c:	f200 8206 	bhi.w	800186c <HAL_RCC_GetSysClockFreq+0x440>
 8001460:	a201      	add	r2, pc, #4	@ (adr r2, 8001468 <HAL_RCC_GetSysClockFreq+0x3c>)
 8001462:	f852 f023 	ldr.w	pc, [r2, r3, lsl #2]
 8001466:	bf00      	nop
 8001468:	0800149d 	.word	0x0800149d
 800146c:	0800186d 	.word	0x0800186d
 8001470:	0800186d 	.word	0x0800186d
 8001474:	0800186d 	.word	0x0800186d
 8001478:	080014a5 	.word	0x080014a5
 800147c:	0800186d 	.word	0x0800186d
 8001480:	0800186d 	.word	0x0800186d
 8001484:	0800186d 	.word	0x0800186d
 8001488:	080014ad 	.word	0x080014ad
 800148c:	0800186d 	.word	0x0800186d
 8001490:	0800186d 	.word	0x0800186d
 8001494:	0800186d 	.word	0x0800186d
 8001498:	0800169d 	.word	0x0800169d
  {
    case RCC_CFGR_SWS_HSI:  /* HSI used as system clock source */
    {
      sysclockfreq = HSI_VALUE;
 800149c:	4bb9      	ldr	r3, [pc, #740]	@ (8001784 <HAL_RCC_GetSysClockFreq+0x358>)
 800149e:	f8c7 30b0 	str.w	r3, [r7, #176]	@ 0xb0
      break;
 80014a2:	e1e7      	b.n	8001874 <HAL_RCC_GetSysClockFreq+0x448>
    }
    case RCC_CFGR_SWS_HSE:  /* HSE used as system clock  source */
    {
      sysclockfreq = HSE_VALUE;
 80014a4:	4bb8      	ldr	r3, [pc, #736]	@ (8001788 <HAL_RCC_GetSysClockFreq+0x35c>)
 80014a6:	f8c7 30b0 	str.w	r3, [r7, #176]	@ 0xb0
      break;
 80014aa:	e1e3      	b.n	8001874 <HAL_RCC_GetSysClockFreq+0x448>
    }
    case RCC_CFGR_SWS_PLL:  /* PLL/PLLP used as system clock  source */
    {
      /* PLL_VCO = (HSE_VALUE or HSI_VALUE / PLLM) * PLLN
      SYSCLK = PLL_VCO / PLLP */
      pllm = RCC->PLLCFGR & RCC_PLLCFGR_PLLM;
 80014ac:	4bb4      	ldr	r3, [pc, #720]	@ (8001780 <HAL_RCC_GetSysClockFreq+0x354>)
 80014ae:	685b      	ldr	r3, [r3, #4]
 80014b0:	f003 033f 	and.w	r3, r3, #63	@ 0x3f
 80014b4:	f8c7 30ac 	str.w	r3, [r7, #172]	@ 0xac
      if (__HAL_RCC_GET_PLL_OSCSOURCE() != RCC_PLLSOURCE_HSI)
 80014b8:	4bb1      	ldr	r3, [pc, #708]	@ (8001780 <HAL_RCC_GetSysClockFreq+0x354>)
 80014ba:	685b      	ldr	r3, [r3, #4]
 80014bc:	f403 0380 	and.w	r3, r3, #4194304	@ 0x400000
 80014c0:	2b00      	cmp	r3, #0
 80014c2:	d071      	beq.n	80015a8 <HAL_RCC_GetSysClockFreq+0x17c>
      {
        /* HSE used as PLL clock source */
        pllvco = (uint32_t)((((uint64_t) HSE_VALUE * ((uint64_t)((RCC->PLLCFGR & RCC_PLLCFGR_PLLN) >> RCC_PLLCFGR_PLLN_Pos)))) / (uint64_t)pllm);
 80014c4:	4bae      	ldr	r3, [pc, #696]	@ (8001780 <HAL_RCC_GetSysClockFreq+0x354>)
 80014c6:	685b      	ldr	r3, [r3, #4]
 80014c8:	099b      	lsrs	r3, r3, #6
 80014ca:	2200      	movs	r2, #0
 80014cc:	f8c7 3098 	str.w	r3, [r7, #152]	@ 0x98
 80014d0:	f8c7 209c 	str.w	r2, [r7, #156]	@ 0x9c
 80014d4:	f8d7 3098 	ldr.w	r3, [r7, #152]	@ 0x98
 80014d8:	f3c3 0308 	ubfx	r3, r3, #0, #9
 80014dc:	f8c7 3090 	str.w	r3, [r7, #144]	@ 0x90
 80014e0:	2300      	movs	r3, #0
 80014e2:	f8c7 3094 	str.w	r3, [r7, #148]	@ 0x94
 80014e6:	e9d7 4524 	ldrd	r4, r5, [r7, #144]	@ 0x90
 80014ea:	4622      	mov	r2, r4
 80014ec:	462b      	mov	r3, r5
 80014ee:	f04f 0000 	mov.w	r0, #0
 80014f2:	f04f 0100 	mov.w	r1, #0
 80014f6:	0159      	lsls	r1, r3, #5
 80014f8:	ea41 61d2 	orr.w	r1, r1, r2, lsr #27
 80014fc:	0150      	lsls	r0, r2, #5
 80014fe:	4602      	mov	r2, r0
 8001500:	460b      	mov	r3, r1
 8001502:	4621      	mov	r1, r4
 8001504:	1a51      	subs	r1, r2, r1
 8001506:	6439      	str	r1, [r7, #64]	@ 0x40
 8001508:	4629      	mov	r1, r5
 800150a:	eb63 0301 	sbc.w	r3, r3, r1
 800150e:	647b      	str	r3, [r7, #68]	@ 0x44
 8001510:	f04f 0200 	mov.w	r2, #0
 8001514:	f04f 0300 	mov.w	r3, #0
 8001518:	e9d7 8910 	ldrd	r8, r9, [r7, #64]	@ 0x40
 800151c:	4649      	mov	r1, r9
 800151e:	018b      	lsls	r3, r1, #6
 8001520:	4641      	mov	r1, r8
 8001522:	ea43 6391 	orr.w	r3, r3, r1, lsr #26
 8001526:	4641      	mov	r1, r8
 8001528:	018a      	lsls	r2, r1, #6
 800152a:	4641      	mov	r1, r8
 800152c:	1a51      	subs	r1, r2, r1
 800152e:	63b9      	str	r1, [r7, #56]	@ 0x38
 8001530:	4649      	mov	r1, r9
 8001532:	eb63 0301 	sbc.w	r3, r3, r1
 8001536:	63fb      	str	r3, [r7, #60]	@ 0x3c
 8001538:	f04f 0200 	mov.w	r2, #0
 800153c:	f04f 0300 	mov.w	r3, #0
 8001540:	e9d7 890e 	ldrd	r8, r9, [r7, #56]	@ 0x38
 8001544:	4649      	mov	r1, r9
 8001546:	00cb      	lsls	r3, r1, #3
 8001548:	4641      	mov	r1, r8
 800154a:	ea43 7351 	orr.w	r3, r3, r1, lsr #29
 800154e:	4641      	mov	r1, r8
 8001550:	00ca      	lsls	r2, r1, #3
 8001552:	4610      	mov	r0, r2
 8001554:	4619      	mov	r1, r3
 8001556:	4603      	mov	r3, r0
 8001558:	4622      	mov	r2, r4
 800155a:	189b      	adds	r3, r3, r2
 800155c:	633b      	str	r3, [r7, #48]	@ 0x30
 800155e:	462b      	mov	r3, r5
 8001560:	460a      	mov	r2, r1
 8001562:	eb42 0303 	adc.w	r3, r2, r3
 8001566:	637b      	str	r3, [r7, #52]	@ 0x34
 8001568:	f04f 0200 	mov.w	r2, #0
 800156c:	f04f 0300 	mov.w	r3, #0
 8001570:	e9d7 450c 	ldrd	r4, r5, [r7, #48]	@ 0x30
 8001574:	4629      	mov	r1, r5
 8001576:	024b      	lsls	r3, r1, #9
 8001578:	4621      	mov	r1, r4
 800157a:	ea43 53d1 	orr.w	r3, r3, r1, lsr #23
 800157e:	4621      	mov	r1, r4
 8001580:	024a      	lsls	r2, r1, #9
 8001582:	4610      	mov	r0, r2
 8001584:	4619      	mov	r1, r3
 8001586:	f8d7 30ac 	ldr.w	r3, [r7, #172]	@ 0xac
 800158a:	2200      	movs	r2, #0
 800158c:	f8c7 3088 	str.w	r3, [r7, #136]	@ 0x88
 8001590:	f8c7 208c 	str.w	r2, [r7, #140]	@ 0x8c
 8001594:	e9d7 2322 	ldrd	r2, r3, [r7, #136]	@ 0x88
 8001598:	f7fe fe34 	bl	8000204 <__aeabi_uldivmod>
 800159c:	4602      	mov	r2, r0
 800159e:	460b      	mov	r3, r1
 80015a0:	4613      	mov	r3, r2
 80015a2:	f8c7 30b4 	str.w	r3, [r7, #180]	@ 0xb4
 80015a6:	e067      	b.n	8001678 <HAL_RCC_GetSysClockFreq+0x24c>
      }
      else
      {
        /* HSI used as PLL clock source */
        pllvco = (uint32_t)((((uint64_t) HSI_VALUE * ((uint64_t)((RCC->PLLCFGR & RCC_PLLCFGR_PLLN) >> RCC_PLLCFGR_PLLN_Pos)))) / (uint64_t)pllm);
 80015a8:	4b75      	ldr	r3, [pc, #468]	@ (8001780 <HAL_RCC_GetSysClockFreq+0x354>)
 80015aa:	685b      	ldr	r3, [r3, #4]
 80015ac:	099b      	lsrs	r3, r3, #6
 80015ae:	2200      	movs	r2, #0
 80015b0:	f8c7 3080 	str.w	r3, [r7, #128]	@ 0x80
 80015b4:	f8c7 2084 	str.w	r2, [r7, #132]	@ 0x84
 80015b8:	f8d7 3080 	ldr.w	r3, [r7, #128]	@ 0x80
 80015bc:	f3c3 0308 	ubfx	r3, r3, #0, #9
 80015c0:	67bb      	str	r3, [r7, #120]	@ 0x78
 80015c2:	2300      	movs	r3, #0
 80015c4:	67fb      	str	r3, [r7, #124]	@ 0x7c
 80015c6:	e9d7 451e 	ldrd	r4, r5, [r7, #120]	@ 0x78
 80015ca:	4622      	mov	r2, r4
 80015cc:	462b      	mov	r3, r5
 80015ce:	f04f 0000 	mov.w	r0, #0
 80015d2:	f04f 0100 	mov.w	r1, #0
 80015d6:	0159      	lsls	r1, r3, #5
 80015d8:	ea41 61d2 	orr.w	r1, r1, r2, lsr #27
 80015dc:	0150      	lsls	r0, r2, #5
 80015de:	4602      	mov	r2, r0
 80015e0:	460b      	mov	r3, r1
 80015e2:	4621      	mov	r1, r4
 80015e4:	1a51      	subs	r1, r2, r1
 80015e6:	62b9      	str	r1, [r7, #40]	@ 0x28
 80015e8:	4629      	mov	r1, r5
 80015ea:	eb63 0301 	sbc.w	r3, r3, r1
 80015ee:	62fb      	str	r3, [r7, #44]	@ 0x2c
 80015f0:	f04f 0200 	mov.w	r2, #0
 80015f4:	f04f 0300 	mov.w	r3, #0
 80015f8:	e9d7 890a 	ldrd	r8, r9, [r7, #40]	@ 0x28
 80015fc:	4649      	mov	r1, r9
 80015fe:	018b      	lsls	r3, r1, #6
 8001600:	4641      	mov	r1, r8
 8001602:	ea43 6391 	orr.w	r3, r3, r1, lsr #26
 8001606:	4641      	mov	r1, r8
 8001608:	018a      	lsls	r2, r1, #6
 800160a:	4641      	mov	r1, r8
 800160c:	ebb2 0a01 	subs.w	sl, r2, r1
 8001610:	4649      	mov	r1, r9
 8001612:	eb63 0b01 	sbc.w	fp, r3, r1
 8001616:	f04f 0200 	mov.w	r2, #0
 800161a:	f04f 0300 	mov.w	r3, #0
 800161e:	ea4f 03cb 	mov.w	r3, fp, lsl #3
 8001622:	ea43 735a 	orr.w	r3, r3, sl, lsr #29
 8001626:	ea4f 02ca 	mov.w	r2, sl, lsl #3
 800162a:	4692      	mov	sl, r2
 800162c:	469b      	mov	fp, r3
 800162e:	4623      	mov	r3, r4
 8001630:	eb1a 0303 	adds.w	r3, sl, r3
 8001634:	623b      	str	r3, [r7, #32]
 8001636:	462b      	mov	r3, r5
 8001638:	eb4b 0303 	adc.w	r3, fp, r3
 800163c:	627b      	str	r3, [r7, #36]	@ 0x24
 800163e:	f04f 0200 	mov.w	r2, #0
 8001642:	f04f 0300 	mov.w	r3, #0
 8001646:	e9d7 4508 	ldrd	r4, r5, [r7, #32]
 800164a:	4629      	mov	r1, r5
 800164c:	028b      	lsls	r3, r1, #10
 800164e:	4621      	mov	r1, r4
 8001650:	ea43 5391 	orr.w	r3, r3, r1, lsr #22
 8001654:	4621      	mov	r1, r4
 8001656:	028a      	lsls	r2, r1, #10
 8001658:	4610      	mov	r0, r2
 800165a:	4619      	mov	r1, r3
 800165c:	f8d7 30ac 	ldr.w	r3, [r7, #172]	@ 0xac
 8001660:	2200      	movs	r2, #0
 8001662:	673b      	str	r3, [r7, #112]	@ 0x70
 8001664:	677a      	str	r2, [r7, #116]	@ 0x74
 8001666:	e9d7 231c 	ldrd	r2, r3, [r7, #112]	@ 0x70
 800166a:	f7fe fdcb 	bl	8000204 <__aeabi_uldivmod>
 800166e:	4602      	mov	r2, r0
 8001670:	460b      	mov	r3, r1
 8001672:	4613      	mov	r3, r2
 8001674:	f8c7 30b4 	str.w	r3, [r7, #180]	@ 0xb4
      }
      pllp = ((((RCC->PLLCFGR & RCC_PLLCFGR_PLLP) >> RCC_PLLCFGR_PLLP_Pos) + 1U) * 2U);
 8001678:	4b41      	ldr	r3, [pc, #260]	@ (8001780 <HAL_RCC_GetSysClockFreq+0x354>)
 800167a:	685b      	ldr	r3, [r3, #4]
 800167c:	0c1b      	lsrs	r3, r3, #16
 800167e:	f003 0303 	and.w	r3, r3, #3
 8001682:	3301      	adds	r3, #1
 8001684:	005b      	lsls	r3, r3, #1
 8001686:	f8c7 30a8 	str.w	r3, [r7, #168]	@ 0xa8

      sysclockfreq = pllvco / pllp;
 800168a:	f8d7 20b4 	ldr.w	r2, [r7, #180]	@ 0xb4
 800168e:	f8d7 30a8 	ldr.w	r3, [r7, #168]	@ 0xa8
 8001692:	fbb2 f3f3 	udiv	r3, r2, r3
 8001696:	f8c7 30b0 	str.w	r3, [r7, #176]	@ 0xb0
      break;
 800169a:	e0eb      	b.n	8001874 <HAL_RCC_GetSysClockFreq+0x448>
    }
    case RCC_CFGR_SWS_PLLR:  /* PLL/PLLR used as system clock  source */
    {
      /* PLL_VCO = (HSE_VALUE or HSI_VALUE / PLLM) * PLLN
      SYSCLK = PLL_VCO / PLLR */
      pllm = RCC->PLLCFGR & RCC_PLLCFGR_PLLM;
 800169c:	4b38      	ldr	r3, [pc, #224]	@ (8001780 <HAL_RCC_GetSysClockFreq+0x354>)
 800169e:	685b      	ldr	r3, [r3, #4]
 80016a0:	f003 033f 	and.w	r3, r3, #63	@ 0x3f
 80016a4:	f8c7 30ac 	str.w	r3, [r7, #172]	@ 0xac
      if (__HAL_RCC_GET_PLL_OSCSOURCE() != RCC_PLLSOURCE_HSI)
 80016a8:	4b35      	ldr	r3, [pc, #212]	@ (8001780 <HAL_RCC_GetSysClockFreq+0x354>)
 80016aa:	685b      	ldr	r3, [r3, #4]
 80016ac:	f403 0380 	and.w	r3, r3, #4194304	@ 0x400000
 80016b0:	2b00      	cmp	r3, #0
 80016b2:	d06b      	beq.n	800178c <HAL_RCC_GetSysClockFreq+0x360>
      {
        /* HSE used as PLL clock source */
        pllvco = (uint32_t)((((uint64_t) HSE_VALUE * ((uint64_t)((RCC->PLLCFGR & RCC_PLLCFGR_PLLN) >> RCC_PLLCFGR_PLLN_Pos)))) / (uint64_t)pllm);
 80016b4:	4b32      	ldr	r3, [pc, #200]	@ (8001780 <HAL_RCC_GetSysClockFreq+0x354>)
 80016b6:	685b      	ldr	r3, [r3, #4]
 80016b8:	099b      	lsrs	r3, r3, #6
 80016ba:	2200      	movs	r2, #0
 80016bc:	66bb      	str	r3, [r7, #104]	@ 0x68
 80016be:	66fa      	str	r2, [r7, #108]	@ 0x6c
 80016c0:	6ebb      	ldr	r3, [r7, #104]	@ 0x68
 80016c2:	f3c3 0308 	ubfx	r3, r3, #0, #9
 80016c6:	663b      	str	r3, [r7, #96]	@ 0x60
 80016c8:	2300      	movs	r3, #0
 80016ca:	667b      	str	r3, [r7, #100]	@ 0x64
 80016cc:	e9d7 4518 	ldrd	r4, r5, [r7, #96]	@ 0x60
 80016d0:	4622      	mov	r2, r4
 80016d2:	462b      	mov	r3, r5
 80016d4:	f04f 0000 	mov.w	r0, #0
 80016d8:	f04f 0100 	mov.w	r1, #0
 80016dc:	0159      	lsls	r1, r3, #5
 80016de:	ea41 61d2 	orr.w	r1, r1, r2, lsr #27
 80016e2:	0150      	lsls	r0, r2, #5
 80016e4:	4602      	mov	r2, r0
 80016e6:	460b      	mov	r3, r1
 80016e8:	4621      	mov	r1, r4
 80016ea:	1a51      	subs	r1, r2, r1
 80016ec:	61b9      	str	r1, [r7, #24]
 80016ee:	4629      	mov	r1, r5
 80016f0:	eb63 0301 	sbc.w	r3, r3, r1
 80016f4:	61fb      	str	r3, [r7, #28]
 80016f6:	f04f 0200 	mov.w	r2, #0
 80016fa:	f04f 0300 	mov.w	r3, #0
 80016fe:	e9d7 ab06 	ldrd	sl, fp, [r7, #24]
 8001702:	4659      	mov	r1, fp
 8001704:	018b      	lsls	r3, r1, #6
 8001706:	4651      	mov	r1, sl
 8001708:	ea43 6391 	orr.w	r3, r3, r1, lsr #26
 800170c:	4651      	mov	r1, sl
 800170e:	018a      	lsls	r2, r1, #6
 8001710:	4651      	mov	r1, sl
 8001712:	ebb2 0801 	subs.w	r8, r2, r1
 8001716:	4659      	mov	r1, fp
 8001718:	eb63 0901 	sbc.w	r9, r3, r1
 800171c:	f04f 0200 	mov.w	r2, #0
 8001720:	f04f 0300 	mov.w	r3, #0
 8001724:	ea4f 03c9 	mov.w	r3, r9, lsl #3
 8001728:	ea43 7358 	orr.w	r3, r3, r8, lsr #29
 800172c:	ea4f 02c8 	mov.w	r2, r8, lsl #3
 8001730:	4690      	mov	r8, r2
 8001732:	4699      	mov	r9, r3
 8001734:	4623      	mov	r3, r4
 8001736:	eb18 0303 	adds.w	r3, r8, r3
 800173a:	613b      	str	r3, [r7, #16]
 800173c:	462b      	mov	r3, r5
 800173e:	eb49 0303 	adc.w	r3, r9, r3
 8001742:	617b      	str	r3, [r7, #20]
 8001744:	f04f 0200 	mov.w	r2, #0
 8001748:	f04f 0300 	mov.w	r3, #0
 800174c:	e9d7 4504 	ldrd	r4, r5, [r7, #16]
 8001750:	4629      	mov	r1, r5
 8001752:	024b      	lsls	r3, r1, #9
 8001754:	4621      	mov	r1, r4
 8001756:	ea43 53d1 	orr.w	r3, r3, r1, lsr #23
 800175a:	4621      	mov	r1, r4
 800175c:	024a      	lsls	r2, r1, #9
 800175e:	4610      	mov	r0, r2
 8001760:	4619      	mov	r1, r3
 8001762:	f8d7 30ac 	ldr.w	r3, [r7, #172]	@ 0xac
 8001766:	2200      	movs	r2, #0
 8001768:	65bb      	str	r3, [r7, #88]	@ 0x58
 800176a:	65fa      	str	r2, [r7, #92]	@ 0x5c
 800176c:	e9d7 2316 	ldrd	r2, r3, [r7, #88]	@ 0x58
 8001770:	f7fe fd48 	bl	8000204 <__aeabi_uldivmod>
 8001774:	4602      	mov	r2, r0
 8001776:	460b      	mov	r3, r1
 8001778:	4613      	mov	r3, r2
 800177a:	f8c7 30b4 	str.w	r3, [r7, #180]	@ 0xb4
 800177e:	e065      	b.n	800184c <HAL_RCC_GetSysClockFreq+0x420>
 8001780:	40023800 	.word	0x40023800
 8001784:	00f42400 	.word	0x00f42400
 8001788:	007a1200 	.word	0x007a1200
      }
      else
      {
        /* HSI used as PLL clock source */
        pllvco = (uint32_t)((((uint64_t) HSI_VALUE * ((uint64_t)((RCC->PLLCFGR & RCC_PLLCFGR_PLLN) >> RCC_PLLCFGR_PLLN_Pos)))) / (uint64_t)pllm);
 800178c:	4b3d      	ldr	r3, [pc, #244]	@ (8001884 <HAL_RCC_GetSysClockFreq+0x458>)
 800178e:	685b      	ldr	r3, [r3, #4]
 8001790:	099b      	lsrs	r3, r3, #6
 8001792:	2200      	movs	r2, #0
 8001794:	4618      	mov	r0, r3
 8001796:	4611      	mov	r1, r2
 8001798:	f3c0 0308 	ubfx	r3, r0, #0, #9
 800179c:	653b      	str	r3, [r7, #80]	@ 0x50
 800179e:	2300      	movs	r3, #0
 80017a0:	657b      	str	r3, [r7, #84]	@ 0x54
 80017a2:	e9d7 8914 	ldrd	r8, r9, [r7, #80]	@ 0x50
 80017a6:	4642      	mov	r2, r8
 80017a8:	464b      	mov	r3, r9
 80017aa:	f04f 0000 	mov.w	r0, #0
 80017ae:	f04f 0100 	mov.w	r1, #0
 80017b2:	0159      	lsls	r1, r3, #5
 80017b4:	ea41 61d2 	orr.w	r1, r1, r2, lsr #27
 80017b8:	0150      	lsls	r0, r2, #5
 80017ba:	4602      	mov	r2, r0
 80017bc:	460b      	mov	r3, r1
 80017be:	4641      	mov	r1, r8
 80017c0:	1a51      	subs	r1, r2, r1
 80017c2:	60b9      	str	r1, [r7, #8]
 80017c4:	4649      	mov	r1, r9
 80017c6:	eb63 0301 	sbc.w	r3, r3, r1
 80017ca:	60fb      	str	r3, [r7, #12]
 80017cc:	f04f 0200 	mov.w	r2, #0
 80017d0:	f04f 0300 	mov.w	r3, #0
 80017d4:	e9d7 ab02 	ldrd	sl, fp, [r7, #8]
 80017d8:	4659      	mov	r1, fp
 80017da:	018b      	lsls	r3, r1, #6
 80017dc:	4651      	mov	r1, sl
 80017de:	ea43 6391 	orr.w	r3, r3, r1, lsr #26
 80017e2:	4651      	mov	r1, sl
 80017e4:	018a      	lsls	r2, r1, #6
 80017e6:	4651      	mov	r1, sl
 80017e8:	1a54      	subs	r4, r2, r1
 80017ea:	4659      	mov	r1, fp
 80017ec:	eb63 0501 	sbc.w	r5, r3, r1
 80017f0:	f04f 0200 	mov.w	r2, #0
 80017f4:	f04f 0300 	mov.w	r3, #0
 80017f8:	00eb      	lsls	r3, r5, #3
 80017fa:	ea43 7354 	orr.w	r3, r3, r4, lsr #29
 80017fe:	00e2      	lsls	r2, r4, #3
 8001800:	4614      	mov	r4, r2
 8001802:	461d      	mov	r5, r3
 8001804:	4643      	mov	r3, r8
 8001806:	18e3      	adds	r3, r4, r3
 8001808:	603b      	str	r3, [r7, #0]
 800180a:	464b      	mov	r3, r9
 800180c:	eb45 0303 	adc.w	r3, r5, r3
 8001810:	607b      	str	r3, [r7, #4]
 8001812:	f04f 0200 	mov.w	r2, #0
 8001816:	f04f 0300 	mov.w	r3, #0
 800181a:	e9d7 4500 	ldrd	r4, r5, [r7]
 800181e:	4629      	mov	r1, r5
 8001820:	028b      	lsls	r3, r1, #10
 8001822:	4621      	mov	r1, r4
 8001824:	ea43 5391 	orr.w	r3, r3, r1, lsr #22
 8001828:	4621      	mov	r1, r4
 800182a:	028a      	lsls	r2, r1, #10
 800182c:	4610      	mov	r0, r2
 800182e:	4619      	mov	r1, r3
 8001830:	f8d7 30ac 	ldr.w	r3, [r7, #172]	@ 0xac
 8001834:	2200      	movs	r2, #0
 8001836:	64bb      	str	r3, [r7, #72]	@ 0x48
 8001838:	64fa      	str	r2, [r7, #76]	@ 0x4c
 800183a:	e9d7 2312 	ldrd	r2, r3, [r7, #72]	@ 0x48
 800183e:	f7fe fce1 	bl	8000204 <__aeabi_uldivmod>
 8001842:	4602      	mov	r2, r0
 8001844:	460b      	mov	r3, r1
 8001846:	4613      	mov	r3, r2
 8001848:	f8c7 30b4 	str.w	r3, [r7, #180]	@ 0xb4
      }
      pllr = ((RCC->PLLCFGR & RCC_PLLCFGR_PLLR) >> RCC_PLLCFGR_PLLR_Pos);
 800184c:	4b0d      	ldr	r3, [pc, #52]	@ (8001884 <HAL_RCC_GetSysClockFreq+0x458>)
 800184e:	685b      	ldr	r3, [r3, #4]
 8001850:	0f1b      	lsrs	r3, r3, #28
 8001852:	f003 0307 	and.w	r3, r3, #7
 8001856:	f8c7 30a4 	str.w	r3, [r7, #164]	@ 0xa4

      sysclockfreq = pllvco / pllr;
 800185a:	f8d7 20b4 	ldr.w	r2, [r7, #180]	@ 0xb4
 800185e:	f8d7 30a4 	ldr.w	r3, [r7, #164]	@ 0xa4
 8001862:	fbb2 f3f3 	udiv	r3, r2, r3
 8001866:	f8c7 30b0 	str.w	r3, [r7, #176]	@ 0xb0
      break;
 800186a:	e003      	b.n	8001874 <HAL_RCC_GetSysClockFreq+0x448>
    }
    default:
    {
      sysclockfreq = HSI_VALUE;
 800186c:	4b06      	ldr	r3, [pc, #24]	@ (8001888 <HAL_RCC_GetSysClockFreq+0x45c>)
 800186e:	f8c7 30b0 	str.w	r3, [r7, #176]	@ 0xb0
      break;
 8001872:	bf00      	nop
    }
  }
  return sysclockfreq;
 8001874:	f8d7 30b0 	ldr.w	r3, [r7, #176]	@ 0xb0
}
 8001878:	4618      	mov	r0, r3
 800187a:	37b8      	adds	r7, #184	@ 0xb8
 800187c:	46bd      	mov	sp, r7
 800187e:	e8bd 8fb0 	ldmia.w	sp!, {r4, r5, r7, r8, r9, sl, fp, pc}
 8001882:	bf00      	nop
 8001884:	40023800 	.word	0x40023800
 8001888:	00f42400 	.word	0x00f42400

0800188c <HAL_RCC_OscConfig>:
  * @note   This function add the PLL/PLLR factor management during PLL configuration this feature
  *         is only available in STM32F410xx/STM32F446xx/STM32F469xx/STM32F479xx/STM32F412Zx/STM32F412Vx/STM32F412Rx/STM32F412Cx devices
  * @retval HAL status
  */
HAL_StatusTypeDef HAL_RCC_OscConfig(RCC_OscInitTypeDef  *RCC_OscInitStruct)
{
 800188c:	b580      	push	{r7, lr}
 800188e:	b086      	sub	sp, #24
 8001890:	af00      	add	r7, sp, #0
 8001892:	6078      	str	r0, [r7, #4]
  uint32_t tickstart;
  uint32_t pll_config;

  /* Check Null pointer */
  if (RCC_OscInitStruct == NULL)
 8001894:	687b      	ldr	r3, [r7, #4]
 8001896:	2b00      	cmp	r3, #0
 8001898:	d101      	bne.n	800189e <HAL_RCC_OscConfig+0x12>
  {
    return HAL_ERROR;
 800189a:	2301      	movs	r3, #1
 800189c:	e28d      	b.n	8001dba <HAL_RCC_OscConfig+0x52e>
  }

  /* Check the parameters */
  assert_param(IS_RCC_OSCILLATORTYPE(RCC_OscInitStruct->OscillatorType));
  /*------------------------------- HSE Configuration ------------------------*/
  if (((RCC_OscInitStruct->OscillatorType) & RCC_OSCILLATORTYPE_HSE) == RCC_OSCILLATORTYPE_HSE)
 800189e:	687b      	ldr	r3, [r7, #4]
 80018a0:	681b      	ldr	r3, [r3, #0]
 80018a2:	f003 0301 	and.w	r3, r3, #1
 80018a6:	2b00      	cmp	r3, #0
 80018a8:	f000 8083 	beq.w	80019b2 <HAL_RCC_OscConfig+0x126>
  {
    /* Check the parameters */
    assert_param(IS_RCC_HSE(RCC_OscInitStruct->HSEState));
    /* When the HSE is used as system clock or clock source for PLL in these cases HSE will not disabled */
#if defined(STM32F446xx)
    if ((__HAL_RCC_GET_SYSCLK_SOURCE() == RCC_CFGR_SWS_HSE)
 80018ac:	4b94      	ldr	r3, [pc, #592]	@ (8001b00 <HAL_RCC_OscConfig+0x274>)
 80018ae:	689b      	ldr	r3, [r3, #8]
 80018b0:	f003 030c 	and.w	r3, r3, #12
 80018b4:	2b04      	cmp	r3, #4
 80018b6:	d019      	beq.n	80018ec <HAL_RCC_OscConfig+0x60>
        || \
        ((__HAL_RCC_GET_SYSCLK_SOURCE() == RCC_CFGR_SWS_PLL) && ((RCC->PLLCFGR & RCC_PLLCFGR_PLLSRC) == RCC_PLLCFGR_PLLSRC_HSE)) || \
 80018b8:	4b91      	ldr	r3, [pc, #580]	@ (8001b00 <HAL_RCC_OscConfig+0x274>)
 80018ba:	689b      	ldr	r3, [r3, #8]
 80018bc:	f003 030c 	and.w	r3, r3, #12
        || \
 80018c0:	2b08      	cmp	r3, #8
 80018c2:	d106      	bne.n	80018d2 <HAL_RCC_OscConfig+0x46>
        ((__HAL_RCC_GET_SYSCLK_SOURCE() == RCC_CFGR_SWS_PLL) && ((RCC->PLLCFGR & RCC_PLLCFGR_PLLSRC) == RCC_PLLCFGR_PLLSRC_HSE)) || \
 80018c4:	4b8e      	ldr	r3, [pc, #568]	@ (8001b00 <HAL_RCC_OscConfig+0x274>)
 80018c6:	685b      	ldr	r3, [r3, #4]
 80018c8:	f403 0380 	and.w	r3, r3, #4194304	@ 0x400000
 80018cc:	f5b3 0f80 	cmp.w	r3, #4194304	@ 0x400000
 80018d0:	d00c      	beq.n	80018ec <HAL_RCC_OscConfig+0x60>
        ((__HAL_RCC_GET_SYSCLK_SOURCE() == RCC_CFGR_SWS_PLLR) && ((RCC->PLLCFGR & RCC_PLLCFGR_PLLSRC) == RCC_PLLCFGR_PLLSRC_HSE)))
 80018d2:	4b8b      	ldr	r3, [pc, #556]	@ (8001b00 <HAL_RCC_OscConfig+0x274>)
 80018d4:	689b      	ldr	r3, [r3, #8]
 80018d6:	f003 030c 	and.w	r3, r3, #12
        ((__HAL_RCC_GET_SYSCLK_SOURCE() == RCC_CFGR_SWS_PLL) && ((RCC->PLLCFGR & RCC_PLLCFGR_PLLSRC) == RCC_PLLCFGR_PLLSRC_HSE)) || \
 80018da:	2b0c      	cmp	r3, #12
 80018dc:	d112      	bne.n	8001904 <HAL_RCC_OscConfig+0x78>
        ((__HAL_RCC_GET_SYSCLK_SOURCE() == RCC_CFGR_SWS_PLLR) && ((RCC->PLLCFGR & RCC_PLLCFGR_PLLSRC) == RCC_PLLCFGR_PLLSRC_HSE)))
 80018de:	4b88      	ldr	r3, [pc, #544]	@ (8001b00 <HAL_RCC_OscConfig+0x274>)
 80018e0:	685b      	ldr	r3, [r3, #4]
 80018e2:	f403 0380 	and.w	r3, r3, #4194304	@ 0x400000
 80018e6:	f5b3 0f80 	cmp.w	r3, #4194304	@ 0x400000
 80018ea:	d10b      	bne.n	8001904 <HAL_RCC_OscConfig+0x78>
    if ((__HAL_RCC_GET_SYSCLK_SOURCE() == RCC_CFGR_SWS_HSE)
        || \
        ((__HAL_RCC_GET_SYSCLK_SOURCE() == RCC_CFGR_SWS_PLL) && ((RCC->PLLCFGR & RCC_PLLCFGR_PLLSRC) == RCC_PLLCFGR_PLLSRC_HSE)))
#endif /* STM32F446xx */
    {
      if ((__HAL_RCC_GET_FLAG(RCC_FLAG_HSERDY) != RESET) && (RCC_OscInitStruct->HSEState == RCC_HSE_OFF))
 80018ec:	4b84      	ldr	r3, [pc, #528]	@ (8001b00 <HAL_RCC_OscConfig+0x274>)
 80018ee:	681b      	ldr	r3, [r3, #0]
 80018f0:	f403 3300 	and.w	r3, r3, #131072	@ 0x20000
 80018f4:	2b00      	cmp	r3, #0
 80018f6:	d05b      	beq.n	80019b0 <HAL_RCC_OscConfig+0x124>
 80018f8:	687b      	ldr	r3, [r7, #4]
 80018fa:	685b      	ldr	r3, [r3, #4]
 80018fc:	2b00      	cmp	r3, #0
 80018fe:	d157      	bne.n	80019b0 <HAL_RCC_OscConfig+0x124>
      {
        return HAL_ERROR;
 8001900:	2301      	movs	r3, #1
 8001902:	e25a      	b.n	8001dba <HAL_RCC_OscConfig+0x52e>
      }
    }
    else
    {
      /* Set the new HSE configuration ---------------------------------------*/
      __HAL_RCC_HSE_CONFIG(RCC_OscInitStruct->HSEState);
 8001904:	687b      	ldr	r3, [r7, #4]
 8001906:	685b      	ldr	r3, [r3, #4]
 8001908:	f5b3 3f80 	cmp.w	r3, #65536	@ 0x10000
 800190c:	d106      	bne.n	800191c <HAL_RCC_OscConfig+0x90>
 800190e:	4b7c      	ldr	r3, [pc, #496]	@ (8001b00 <HAL_RCC_OscConfig+0x274>)
 8001910:	681b      	ldr	r3, [r3, #0]
 8001912:	4a7b      	ldr	r2, [pc, #492]	@ (8001b00 <HAL_RCC_OscConfig+0x274>)
 8001914:	f443 3380 	orr.w	r3, r3, #65536	@ 0x10000
 8001918:	6013      	str	r3, [r2, #0]
 800191a:	e01d      	b.n	8001958 <HAL_RCC_OscConfig+0xcc>
 800191c:	687b      	ldr	r3, [r7, #4]
 800191e:	685b      	ldr	r3, [r3, #4]
 8001920:	f5b3 2fa0 	cmp.w	r3, #327680	@ 0x50000
 8001924:	d10c      	bne.n	8001940 <HAL_RCC_OscConfig+0xb4>
 8001926:	4b76      	ldr	r3, [pc, #472]	@ (8001b00 <HAL_RCC_OscConfig+0x274>)
 8001928:	681b      	ldr	r3, [r3, #0]
 800192a:	4a75      	ldr	r2, [pc, #468]	@ (8001b00 <HAL_RCC_OscConfig+0x274>)
 800192c:	f443 2380 	orr.w	r3, r3, #262144	@ 0x40000
 8001930:	6013      	str	r3, [r2, #0]
 8001932:	4b73      	ldr	r3, [pc, #460]	@ (8001b00 <HAL_RCC_OscConfig+0x274>)
 8001934:	681b      	ldr	r3, [r3, #0]
 8001936:	4a72      	ldr	r2, [pc, #456]	@ (8001b00 <HAL_RCC_OscConfig+0x274>)
 8001938:	f443 3380 	orr.w	r3, r3, #65536	@ 0x10000
 800193c:	6013      	str	r3, [r2, #0]
 800193e:	e00b      	b.n	8001958 <HAL_RCC_OscConfig+0xcc>
 8001940:	4b6f      	ldr	r3, [pc, #444]	@ (8001b00 <HAL_RCC_OscConfig+0x274>)
 8001942:	681b      	ldr	r3, [r3, #0]
 8001944:	4a6e      	ldr	r2, [pc, #440]	@ (8001b00 <HAL_RCC_OscConfig+0x274>)
 8001946:	f423 3380 	bic.w	r3, r3, #65536	@ 0x10000
 800194a:	6013      	str	r3, [r2, #0]
 800194c:	4b6c      	ldr	r3, [pc, #432]	@ (8001b00 <HAL_RCC_OscConfig+0x274>)
 800194e:	681b      	ldr	r3, [r3, #0]
 8001950:	4a6b      	ldr	r2, [pc, #428]	@ (8001b00 <HAL_RCC_OscConfig+0x274>)
 8001952:	f423 2380 	bic.w	r3, r3, #262144	@ 0x40000
 8001956:	6013      	str	r3, [r2, #0]

      /* Check the HSE State */
      if ((RCC_OscInitStruct->HSEState) != RCC_HSE_OFF)
 8001958:	687b      	ldr	r3, [r7, #4]
 800195a:	685b      	ldr	r3, [r3, #4]
 800195c:	2b00      	cmp	r3, #0
 800195e:	d013      	beq.n	8001988 <HAL_RCC_OscConfig+0xfc>
      {
        /* Get Start Tick*/
        tickstart = HAL_GetTick();
 8001960:	f7ff f9a0 	bl	8000ca4 <HAL_GetTick>
 8001964:	6138      	str	r0, [r7, #16]

        /* Wait till HSE is ready */
        while (__HAL_RCC_GET_FLAG(RCC_FLAG_HSERDY) == RESET)
 8001966:	e008      	b.n	800197a <HAL_RCC_OscConfig+0xee>
        {
          if ((HAL_GetTick() - tickstart) > HSE_TIMEOUT_VALUE)
 8001968:	f7ff f99c 	bl	8000ca4 <HAL_GetTick>
 800196c:	4602      	mov	r2, r0
 800196e:	693b      	ldr	r3, [r7, #16]
 8001970:	1ad3      	subs	r3, r2, r3
 8001972:	2b64      	cmp	r3, #100	@ 0x64
 8001974:	d901      	bls.n	800197a <HAL_RCC_OscConfig+0xee>
          {
            return HAL_TIMEOUT;
 8001976:	2303      	movs	r3, #3
 8001978:	e21f      	b.n	8001dba <HAL_RCC_OscConfig+0x52e>
        while (__HAL_RCC_GET_FLAG(RCC_FLAG_HSERDY) == RESET)
 800197a:	4b61      	ldr	r3, [pc, #388]	@ (8001b00 <HAL_RCC_OscConfig+0x274>)
 800197c:	681b      	ldr	r3, [r3, #0]
 800197e:	f403 3300 	and.w	r3, r3, #131072	@ 0x20000
 8001982:	2b00      	cmp	r3, #0
 8001984:	d0f0      	beq.n	8001968 <HAL_RCC_OscConfig+0xdc>
 8001986:	e014      	b.n	80019b2 <HAL_RCC_OscConfig+0x126>
        }
      }
      else
      {
        /* Get Start Tick*/
        tickstart = HAL_GetTick();
 8001988:	f7ff f98c 	bl	8000ca4 <HAL_GetTick>
 800198c:	6138      	str	r0, [r7, #16]

        /* Wait till HSE is bypassed or disabled */
        while (__HAL_RCC_GET_FLAG(RCC_FLAG_HSERDY) != RESET)
 800198e:	e008      	b.n	80019a2 <HAL_RCC_OscConfig+0x116>
        {
          if ((HAL_GetTick() - tickstart) > HSE_TIMEOUT_VALUE)
 8001990:	f7ff f988 	bl	8000ca4 <HAL_GetTick>
 8001994:	4602      	mov	r2, r0
 8001996:	693b      	ldr	r3, [r7, #16]
 8001998:	1ad3      	subs	r3, r2, r3
 800199a:	2b64      	cmp	r3, #100	@ 0x64
 800199c:	d901      	bls.n	80019a2 <HAL_RCC_OscConfig+0x116>
          {
            return HAL_TIMEOUT;
 800199e:	2303      	movs	r3, #3
 80019a0:	e20b      	b.n	8001dba <HAL_RCC_OscConfig+0x52e>
        while (__HAL_RCC_GET_FLAG(RCC_FLAG_HSERDY) != RESET)
 80019a2:	4b57      	ldr	r3, [pc, #348]	@ (8001b00 <HAL_RCC_OscConfig+0x274>)
 80019a4:	681b      	ldr	r3, [r3, #0]
 80019a6:	f403 3300 	and.w	r3, r3, #131072	@ 0x20000
 80019aa:	2b00      	cmp	r3, #0
 80019ac:	d1f0      	bne.n	8001990 <HAL_RCC_OscConfig+0x104>
 80019ae:	e000      	b.n	80019b2 <HAL_RCC_OscConfig+0x126>
      if ((__HAL_RCC_GET_FLAG(RCC_FLAG_HSERDY) != RESET) && (RCC_OscInitStruct->HSEState == RCC_HSE_OFF))
 80019b0:	bf00      	nop
        }
      }
    }
  }
  /*----------------------------- HSI Configuration --------------------------*/
  if (((RCC_OscInitStruct->OscillatorType) & RCC_OSCILLATORTYPE_HSI) == RCC_OSCILLATORTYPE_HSI)
 80019b2:	687b      	ldr	r3, [r7, #4]
 80019b4:	681b      	ldr	r3, [r3, #0]
 80019b6:	f003 0302 	and.w	r3, r3, #2
 80019ba:	2b00      	cmp	r3, #0
 80019bc:	d06f      	beq.n	8001a9e <HAL_RCC_OscConfig+0x212>
    assert_param(IS_RCC_HSI(RCC_OscInitStruct->HSIState));
    assert_param(IS_RCC_CALIBRATION_VALUE(RCC_OscInitStruct->HSICalibrationValue));

    /* Check if HSI is used as system clock or as PLL source when PLL is selected as system clock */
#if defined(STM32F446xx)
    if ((__HAL_RCC_GET_SYSCLK_SOURCE() == RCC_CFGR_SWS_HSI)
 80019be:	4b50      	ldr	r3, [pc, #320]	@ (8001b00 <HAL_RCC_OscConfig+0x274>)
 80019c0:	689b      	ldr	r3, [r3, #8]
 80019c2:	f003 030c 	and.w	r3, r3, #12
 80019c6:	2b00      	cmp	r3, #0
 80019c8:	d017      	beq.n	80019fa <HAL_RCC_OscConfig+0x16e>
        || \
        ((__HAL_RCC_GET_SYSCLK_SOURCE() == RCC_CFGR_SWS_PLL) && ((RCC->PLLCFGR & RCC_PLLCFGR_PLLSRC) == RCC_PLLCFGR_PLLSRC_HSI)) || \
 80019ca:	4b4d      	ldr	r3, [pc, #308]	@ (8001b00 <HAL_RCC_OscConfig+0x274>)
 80019cc:	689b      	ldr	r3, [r3, #8]
 80019ce:	f003 030c 	and.w	r3, r3, #12
        || \
 80019d2:	2b08      	cmp	r3, #8
 80019d4:	d105      	bne.n	80019e2 <HAL_RCC_OscConfig+0x156>
        ((__HAL_RCC_GET_SYSCLK_SOURCE() == RCC_CFGR_SWS_PLL) && ((RCC->PLLCFGR & RCC_PLLCFGR_PLLSRC) == RCC_PLLCFGR_PLLSRC_HSI)) || \
 80019d6:	4b4a      	ldr	r3, [pc, #296]	@ (8001b00 <HAL_RCC_OscConfig+0x274>)
 80019d8:	685b      	ldr	r3, [r3, #4]
 80019da:	f403 0380 	and.w	r3, r3, #4194304	@ 0x400000
 80019de:	2b00      	cmp	r3, #0
 80019e0:	d00b      	beq.n	80019fa <HAL_RCC_OscConfig+0x16e>
        ((__HAL_RCC_GET_SYSCLK_SOURCE() == RCC_CFGR_SWS_PLLR) && ((RCC->PLLCFGR & RCC_PLLCFGR_PLLSRC) == RCC_PLLCFGR_PLLSRC_HSI)))
 80019e2:	4b47      	ldr	r3, [pc, #284]	@ (8001b00 <HAL_RCC_OscConfig+0x274>)
 80019e4:	689b      	ldr	r3, [r3, #8]
 80019e6:	f003 030c 	and.w	r3, r3, #12
        ((__HAL_RCC_GET_SYSCLK_SOURCE() == RCC_CFGR_SWS_PLL) && ((RCC->PLLCFGR & RCC_PLLCFGR_PLLSRC) == RCC_PLLCFGR_PLLSRC_HSI)) || \
 80019ea:	2b0c      	cmp	r3, #12
 80019ec:	d11c      	bne.n	8001a28 <HAL_RCC_OscConfig+0x19c>
        ((__HAL_RCC_GET_SYSCLK_SOURCE() == RCC_CFGR_SWS_PLLR) && ((RCC->PLLCFGR & RCC_PLLCFGR_PLLSRC) == RCC_PLLCFGR_PLLSRC_HSI)))
 80019ee:	4b44      	ldr	r3, [pc, #272]	@ (8001b00 <HAL_RCC_OscConfig+0x274>)
 80019f0:	685b      	ldr	r3, [r3, #4]
 80019f2:	f403 0380 	and.w	r3, r3, #4194304	@ 0x400000
 80019f6:	2b00      	cmp	r3, #0
 80019f8:	d116      	bne.n	8001a28 <HAL_RCC_OscConfig+0x19c>
        || \
        ((__HAL_RCC_GET_SYSCLK_SOURCE() == RCC_CFGR_SWS_PLL) && ((RCC->PLLCFGR & RCC_PLLCFGR_PLLSRC) == RCC_PLLCFGR_PLLSRC_HSI)))
#endif /* STM32F446xx */
    {
      /* When HSI is used as system clock it will not disabled */
      if ((__HAL_RCC_GET_FLAG(RCC_FLAG_HSIRDY) != RESET) && (RCC_OscInitStruct->HSIState != RCC_HSI_ON))
 80019fa:	4b41      	ldr	r3, [pc, #260]	@ (8001b00 <HAL_RCC_OscConfig+0x274>)
 80019fc:	681b      	ldr	r3, [r3, #0]
 80019fe:	f003 0302 	and.w	r3, r3, #2
 8001a02:	2b00      	cmp	r3, #0
 8001a04:	d005      	beq.n	8001a12 <HAL_RCC_OscConfig+0x186>
 8001a06:	687b      	ldr	r3, [r7, #4]
 8001a08:	68db      	ldr	r3, [r3, #12]
 8001a0a:	2b01      	cmp	r3, #1
 8001a0c:	d001      	beq.n	8001a12 <HAL_RCC_OscConfig+0x186>
      {
        return HAL_ERROR;
 8001a0e:	2301      	movs	r3, #1
 8001a10:	e1d3      	b.n	8001dba <HAL_RCC_OscConfig+0x52e>
      }
      /* Otherwise, just the calibration is allowed */
      else
      {
        /* Adjusts the Internal High Speed oscillator (HSI) calibration value.*/
        __HAL_RCC_HSI_CALIBRATIONVALUE_ADJUST(RCC_OscInitStruct->HSICalibrationValue);
 8001a12:	4b3b      	ldr	r3, [pc, #236]	@ (8001b00 <HAL_RCC_OscConfig+0x274>)
 8001a14:	681b      	ldr	r3, [r3, #0]
 8001a16:	f023 02f8 	bic.w	r2, r3, #248	@ 0xf8
 8001a1a:	687b      	ldr	r3, [r7, #4]
 8001a1c:	691b      	ldr	r3, [r3, #16]
 8001a1e:	00db      	lsls	r3, r3, #3
 8001a20:	4937      	ldr	r1, [pc, #220]	@ (8001b00 <HAL_RCC_OscConfig+0x274>)
 8001a22:	4313      	orrs	r3, r2
 8001a24:	600b      	str	r3, [r1, #0]
      if ((__HAL_RCC_GET_FLAG(RCC_FLAG_HSIRDY) != RESET) && (RCC_OscInitStruct->HSIState != RCC_HSI_ON))
 8001a26:	e03a      	b.n	8001a9e <HAL_RCC_OscConfig+0x212>
      }
    }
    else
    {
      /* Check the HSI State */
      if ((RCC_OscInitStruct->HSIState) != RCC_HSI_OFF)
 8001a28:	687b      	ldr	r3, [r7, #4]
 8001a2a:	68db      	ldr	r3, [r3, #12]
 8001a2c:	2b00      	cmp	r3, #0
 8001a2e:	d020      	beq.n	8001a72 <HAL_RCC_OscConfig+0x1e6>
      {
        /* Enable the Internal High Speed oscillator (HSI). */
        __HAL_RCC_HSI_ENABLE();
 8001a30:	4b34      	ldr	r3, [pc, #208]	@ (8001b04 <HAL_RCC_OscConfig+0x278>)
 8001a32:	2201      	movs	r2, #1
 8001a34:	601a      	str	r2, [r3, #0]

        /* Get Start Tick*/
        tickstart = HAL_GetTick();
 8001a36:	f7ff f935 	bl	8000ca4 <HAL_GetTick>
 8001a3a:	6138      	str	r0, [r7, #16]

        /* Wait till HSI is ready */
        while (__HAL_RCC_GET_FLAG(RCC_FLAG_HSIRDY) == RESET)
 8001a3c:	e008      	b.n	8001a50 <HAL_RCC_OscConfig+0x1c4>
        {
          if ((HAL_GetTick() - tickstart) > HSI_TIMEOUT_VALUE)
 8001a3e:	f7ff f931 	bl	8000ca4 <HAL_GetTick>
 8001a42:	4602      	mov	r2, r0
 8001a44:	693b      	ldr	r3, [r7, #16]
 8001a46:	1ad3      	subs	r3, r2, r3
 8001a48:	2b02      	cmp	r3, #2
 8001a4a:	d901      	bls.n	8001a50 <HAL_RCC_OscConfig+0x1c4>
          {
            return HAL_TIMEOUT;
 8001a4c:	2303      	movs	r3, #3
 8001a4e:	e1b4      	b.n	8001dba <HAL_RCC_OscConfig+0x52e>
        while (__HAL_RCC_GET_FLAG(RCC_FLAG_HSIRDY) == RESET)
 8001a50:	4b2b      	ldr	r3, [pc, #172]	@ (8001b00 <HAL_RCC_OscConfig+0x274>)
 8001a52:	681b      	ldr	r3, [r3, #0]
 8001a54:	f003 0302 	and.w	r3, r3, #2
 8001a58:	2b00      	cmp	r3, #0
 8001a5a:	d0f0      	beq.n	8001a3e <HAL_RCC_OscConfig+0x1b2>
          }
        }

        /* Adjusts the Internal High Speed oscillator (HSI) calibration value.*/
        __HAL_RCC_HSI_CALIBRATIONVALUE_ADJUST(RCC_OscInitStruct->HSICalibrationValue);
 8001a5c:	4b28      	ldr	r3, [pc, #160]	@ (8001b00 <HAL_RCC_OscConfig+0x274>)
 8001a5e:	681b      	ldr	r3, [r3, #0]
 8001a60:	f023 02f8 	bic.w	r2, r3, #248	@ 0xf8
 8001a64:	687b      	ldr	r3, [r7, #4]
 8001a66:	691b      	ldr	r3, [r3, #16]
 8001a68:	00db      	lsls	r3, r3, #3
 8001a6a:	4925      	ldr	r1, [pc, #148]	@ (8001b00 <HAL_RCC_OscConfig+0x274>)
 8001a6c:	4313      	orrs	r3, r2
 8001a6e:	600b      	str	r3, [r1, #0]
 8001a70:	e015      	b.n	8001a9e <HAL_RCC_OscConfig+0x212>
      }
      else
      {
        /* Disable the Internal High Speed oscillator (HSI). */
        __HAL_RCC_HSI_DISABLE();
 8001a72:	4b24      	ldr	r3, [pc, #144]	@ (8001b04 <HAL_RCC_OscConfig+0x278>)
 8001a74:	2200      	movs	r2, #0
 8001a76:	601a      	str	r2, [r3, #0]

        /* Get Start Tick*/
        tickstart = HAL_GetTick();
 8001a78:	f7ff f914 	bl	8000ca4 <HAL_GetTick>
 8001a7c:	6138      	str	r0, [r7, #16]

        /* Wait till HSI is ready */
        while (__HAL_RCC_GET_FLAG(RCC_FLAG_HSIRDY) != RESET)
 8001a7e:	e008      	b.n	8001a92 <HAL_RCC_OscConfig+0x206>
        {
          if ((HAL_GetTick() - tickstart) > HSI_TIMEOUT_VALUE)
 8001a80:	f7ff f910 	bl	8000ca4 <HAL_GetTick>
 8001a84:	4602      	mov	r2, r0
 8001a86:	693b      	ldr	r3, [r7, #16]
 8001a88:	1ad3      	subs	r3, r2, r3
 8001a8a:	2b02      	cmp	r3, #2
 8001a8c:	d901      	bls.n	8001a92 <HAL_RCC_OscConfig+0x206>
          {
            return HAL_TIMEOUT;
 8001a8e:	2303      	movs	r3, #3
 8001a90:	e193      	b.n	8001dba <HAL_RCC_OscConfig+0x52e>
        while (__HAL_RCC_GET_FLAG(RCC_FLAG_HSIRDY) != RESET)
 8001a92:	4b1b      	ldr	r3, [pc, #108]	@ (8001b00 <HAL_RCC_OscConfig+0x274>)
 8001a94:	681b      	ldr	r3, [r3, #0]
 8001a96:	f003 0302 	and.w	r3, r3, #2
 8001a9a:	2b00      	cmp	r3, #0
 8001a9c:	d1f0      	bne.n	8001a80 <HAL_RCC_OscConfig+0x1f4>
        }
      }
    }
  }
  /*------------------------------ LSI Configuration -------------------------*/
  if (((RCC_OscInitStruct->OscillatorType) & RCC_OSCILLATORTYPE_LSI) == RCC_OSCILLATORTYPE_LSI)
 8001a9e:	687b      	ldr	r3, [r7, #4]
 8001aa0:	681b      	ldr	r3, [r3, #0]
 8001aa2:	f003 0308 	and.w	r3, r3, #8
 8001aa6:	2b00      	cmp	r3, #0
 8001aa8:	d036      	beq.n	8001b18 <HAL_RCC_OscConfig+0x28c>
  {
    /* Check the parameters */
    assert_param(IS_RCC_LSI(RCC_OscInitStruct->LSIState));

    /* Check the LSI State */
    if ((RCC_OscInitStruct->LSIState) != RCC_LSI_OFF)
 8001aaa:	687b      	ldr	r3, [r7, #4]
 8001aac:	695b      	ldr	r3, [r3, #20]
 8001aae:	2b00      	cmp	r3, #0
 8001ab0:	d016      	beq.n	8001ae0 <HAL_RCC_OscConfig+0x254>
    {
      /* Enable the Internal Low Speed oscillator (LSI). */
      __HAL_RCC_LSI_ENABLE();
 8001ab2:	4b15      	ldr	r3, [pc, #84]	@ (8001b08 <HAL_RCC_OscConfig+0x27c>)
 8001ab4:	2201      	movs	r2, #1
 8001ab6:	601a      	str	r2, [r3, #0]

      /* Get Start Tick*/
      tickstart = HAL_GetTick();
 8001ab8:	f7ff f8f4 	bl	8000ca4 <HAL_GetTick>
 8001abc:	6138      	str	r0, [r7, #16]

      /* Wait till LSI is ready */
      while (__HAL_RCC_GET_FLAG(RCC_FLAG_LSIRDY) == RESET)
 8001abe:	e008      	b.n	8001ad2 <HAL_RCC_OscConfig+0x246>
      {
        if ((HAL_GetTick() - tickstart) > LSI_TIMEOUT_VALUE)
 8001ac0:	f7ff f8f0 	bl	8000ca4 <HAL_GetTick>
 8001ac4:	4602      	mov	r2, r0
 8001ac6:	693b      	ldr	r3, [r7, #16]
 8001ac8:	1ad3      	subs	r3, r2, r3
 8001aca:	2b02      	cmp	r3, #2
 8001acc:	d901      	bls.n	8001ad2 <HAL_RCC_OscConfig+0x246>
        {
          return HAL_TIMEOUT;
 8001ace:	2303      	movs	r3, #3
 8001ad0:	e173      	b.n	8001dba <HAL_RCC_OscConfig+0x52e>
      while (__HAL_RCC_GET_FLAG(RCC_FLAG_LSIRDY) == RESET)
 8001ad2:	4b0b      	ldr	r3, [pc, #44]	@ (8001b00 <HAL_RCC_OscConfig+0x274>)
 8001ad4:	6f5b      	ldr	r3, [r3, #116]	@ 0x74
 8001ad6:	f003 0302 	and.w	r3, r3, #2
 8001ada:	2b00      	cmp	r3, #0
 8001adc:	d0f0      	beq.n	8001ac0 <HAL_RCC_OscConfig+0x234>
 8001ade:	e01b      	b.n	8001b18 <HAL_RCC_OscConfig+0x28c>
      }
    }
    else
    {
      /* Disable the Internal Low Speed oscillator (LSI). */
      __HAL_RCC_LSI_DISABLE();
 8001ae0:	4b09      	ldr	r3, [pc, #36]	@ (8001b08 <HAL_RCC_OscConfig+0x27c>)
 8001ae2:	2200      	movs	r2, #0
 8001ae4:	601a      	str	r2, [r3, #0]

      /* Get Start Tick*/
      tickstart = HAL_GetTick();
 8001ae6:	f7ff f8dd 	bl	8000ca4 <HAL_GetTick>
 8001aea:	6138      	str	r0, [r7, #16]

      /* Wait till LSI is ready */
      while (__HAL_RCC_GET_FLAG(RCC_FLAG_LSIRDY) != RESET)
 8001aec:	e00e      	b.n	8001b0c <HAL_RCC_OscConfig+0x280>
      {
        if ((HAL_GetTick() - tickstart) > LSI_TIMEOUT_VALUE)
 8001aee:	f7ff f8d9 	bl	8000ca4 <HAL_GetTick>
 8001af2:	4602      	mov	r2, r0
 8001af4:	693b      	ldr	r3, [r7, #16]
 8001af6:	1ad3      	subs	r3, r2, r3
 8001af8:	2b02      	cmp	r3, #2
 8001afa:	d907      	bls.n	8001b0c <HAL_RCC_OscConfig+0x280>
        {
          return HAL_TIMEOUT;
 8001afc:	2303      	movs	r3, #3
 8001afe:	e15c      	b.n	8001dba <HAL_RCC_OscConfig+0x52e>
 8001b00:	40023800 	.word	0x40023800
 8001b04:	42470000 	.word	0x42470000
 8001b08:	42470e80 	.word	0x42470e80
      while (__HAL_RCC_GET_FLAG(RCC_FLAG_LSIRDY) != RESET)
 8001b0c:	4b8a      	ldr	r3, [pc, #552]	@ (8001d38 <HAL_RCC_OscConfig+0x4ac>)
 8001b0e:	6f5b      	ldr	r3, [r3, #116]	@ 0x74
 8001b10:	f003 0302 	and.w	r3, r3, #2
 8001b14:	2b00      	cmp	r3, #0
 8001b16:	d1ea      	bne.n	8001aee <HAL_RCC_OscConfig+0x262>
        }
      }
    }
  }
  /*------------------------------ LSE Configuration -------------------------*/
  if (((RCC_OscInitStruct->OscillatorType) & RCC_OSCILLATORTYPE_LSE) == RCC_OSCILLATORTYPE_LSE)
 8001b18:	687b      	ldr	r3, [r7, #4]
 8001b1a:	681b      	ldr	r3, [r3, #0]
 8001b1c:	f003 0304 	and.w	r3, r3, #4
 8001b20:	2b00      	cmp	r3, #0
 8001b22:	f000 8097 	beq.w	8001c54 <HAL_RCC_OscConfig+0x3c8>
  {
    FlagStatus       pwrclkchanged = RESET;
 8001b26:	2300      	movs	r3, #0
 8001b28:	75fb      	strb	r3, [r7, #23]
    /* Check the parameters */
    assert_param(IS_RCC_LSE(RCC_OscInitStruct->LSEState));

    /* Update LSE configuration in Backup Domain control register    */
    /* Requires to enable write access to Backup Domain of necessary */
    if (__HAL_RCC_PWR_IS_CLK_DISABLED())
 8001b2a:	4b83      	ldr	r3, [pc, #524]	@ (8001d38 <HAL_RCC_OscConfig+0x4ac>)
 8001b2c:	6c1b      	ldr	r3, [r3, #64]	@ 0x40
 8001b2e:	f003 5380 	and.w	r3, r3, #268435456	@ 0x10000000
 8001b32:	2b00      	cmp	r3, #0
 8001b34:	d10f      	bne.n	8001b56 <HAL_RCC_OscConfig+0x2ca>
    {
      __HAL_RCC_PWR_CLK_ENABLE();
 8001b36:	2300      	movs	r3, #0
 8001b38:	60bb      	str	r3, [r7, #8]
 8001b3a:	4b7f      	ldr	r3, [pc, #508]	@ (8001d38 <HAL_RCC_OscConfig+0x4ac>)
 8001b3c:	6c1b      	ldr	r3, [r3, #64]	@ 0x40
 8001b3e:	4a7e      	ldr	r2, [pc, #504]	@ (8001d38 <HAL_RCC_OscConfig+0x4ac>)
 8001b40:	f043 5380 	orr.w	r3, r3, #268435456	@ 0x10000000
 8001b44:	6413      	str	r3, [r2, #64]	@ 0x40
 8001b46:	4b7c      	ldr	r3, [pc, #496]	@ (8001d38 <HAL_RCC_OscConfig+0x4ac>)
 8001b48:	6c1b      	ldr	r3, [r3, #64]	@ 0x40
 8001b4a:	f003 5380 	and.w	r3, r3, #268435456	@ 0x10000000
 8001b4e:	60bb      	str	r3, [r7, #8]
 8001b50:	68bb      	ldr	r3, [r7, #8]
      pwrclkchanged = SET;
 8001b52:	2301      	movs	r3, #1
 8001b54:	75fb      	strb	r3, [r7, #23]
    }

    if (HAL_IS_BIT_CLR(PWR->CR, PWR_CR_DBP))
 8001b56:	4b79      	ldr	r3, [pc, #484]	@ (8001d3c <HAL_RCC_OscConfig+0x4b0>)
 8001b58:	681b      	ldr	r3, [r3, #0]
 8001b5a:	f403 7380 	and.w	r3, r3, #256	@ 0x100
 8001b5e:	2b00      	cmp	r3, #0
 8001b60:	d118      	bne.n	8001b94 <HAL_RCC_OscConfig+0x308>
    {
      /* Enable write access to Backup domain */
      SET_BIT(PWR->CR, PWR_CR_DBP);
 8001b62:	4b76      	ldr	r3, [pc, #472]	@ (8001d3c <HAL_RCC_OscConfig+0x4b0>)
 8001b64:	681b      	ldr	r3, [r3, #0]
 8001b66:	4a75      	ldr	r2, [pc, #468]	@ (8001d3c <HAL_RCC_OscConfig+0x4b0>)
 8001b68:	f443 7380 	orr.w	r3, r3, #256	@ 0x100
 8001b6c:	6013      	str	r3, [r2, #0]

      /* Wait for Backup domain Write protection disable */
      tickstart = HAL_GetTick();
 8001b6e:	f7ff f899 	bl	8000ca4 <HAL_GetTick>
 8001b72:	6138      	str	r0, [r7, #16]

      while (HAL_IS_BIT_CLR(PWR->CR, PWR_CR_DBP))
 8001b74:	e008      	b.n	8001b88 <HAL_RCC_OscConfig+0x2fc>
      {
        if ((HAL_GetTick() - tickstart) > RCC_DBP_TIMEOUT_VALUE)
 8001b76:	f7ff f895 	bl	8000ca4 <HAL_GetTick>
 8001b7a:	4602      	mov	r2, r0
 8001b7c:	693b      	ldr	r3, [r7, #16]
 8001b7e:	1ad3      	subs	r3, r2, r3
 8001b80:	2b02      	cmp	r3, #2
 8001b82:	d901      	bls.n	8001b88 <HAL_RCC_OscConfig+0x2fc>
        {
          return HAL_TIMEOUT;
 8001b84:	2303      	movs	r3, #3
 8001b86:	e118      	b.n	8001dba <HAL_RCC_OscConfig+0x52e>
      while (HAL_IS_BIT_CLR(PWR->CR, PWR_CR_DBP))
 8001b88:	4b6c      	ldr	r3, [pc, #432]	@ (8001d3c <HAL_RCC_OscConfig+0x4b0>)
 8001b8a:	681b      	ldr	r3, [r3, #0]
 8001b8c:	f403 7380 	and.w	r3, r3, #256	@ 0x100
 8001b90:	2b00      	cmp	r3, #0
 8001b92:	d0f0      	beq.n	8001b76 <HAL_RCC_OscConfig+0x2ea>
        }
      }
    }

    /* Set the new LSE configuration -----------------------------------------*/
    __HAL_RCC_LSE_CONFIG(RCC_OscInitStruct->LSEState);
 8001b94:	687b      	ldr	r3, [r7, #4]
 8001b96:	689b      	ldr	r3, [r3, #8]
 8001b98:	2b01      	cmp	r3, #1
 8001b9a:	d106      	bne.n	8001baa <HAL_RCC_OscConfig+0x31e>
 8001b9c:	4b66      	ldr	r3, [pc, #408]	@ (8001d38 <HAL_RCC_OscConfig+0x4ac>)
 8001b9e:	6f1b      	ldr	r3, [r3, #112]	@ 0x70
 8001ba0:	4a65      	ldr	r2, [pc, #404]	@ (8001d38 <HAL_RCC_OscConfig+0x4ac>)
 8001ba2:	f043 0301 	orr.w	r3, r3, #1
 8001ba6:	6713      	str	r3, [r2, #112]	@ 0x70
 8001ba8:	e01c      	b.n	8001be4 <HAL_RCC_OscConfig+0x358>
 8001baa:	687b      	ldr	r3, [r7, #4]
 8001bac:	689b      	ldr	r3, [r3, #8]
 8001bae:	2b05      	cmp	r3, #5
 8001bb0:	d10c      	bne.n	8001bcc <HAL_RCC_OscConfig+0x340>
 8001bb2:	4b61      	ldr	r3, [pc, #388]	@ (8001d38 <HAL_RCC_OscConfig+0x4ac>)
 8001bb4:	6f1b      	ldr	r3, [r3, #112]	@ 0x70
 8001bb6:	4a60      	ldr	r2, [pc, #384]	@ (8001d38 <HAL_RCC_OscConfig+0x4ac>)
 8001bb8:	f043 0304 	orr.w	r3, r3, #4
 8001bbc:	6713      	str	r3, [r2, #112]	@ 0x70
 8001bbe:	4b5e      	ldr	r3, [pc, #376]	@ (8001d38 <HAL_RCC_OscConfig+0x4ac>)
 8001bc0:	6f1b      	ldr	r3, [r3, #112]	@ 0x70
 8001bc2:	4a5d      	ldr	r2, [pc, #372]	@ (8001d38 <HAL_RCC_OscConfig+0x4ac>)
 8001bc4:	f043 0301 	orr.w	r3, r3, #1
 8001bc8:	6713      	str	r3, [r2, #112]	@ 0x70
 8001bca:	e00b      	b.n	8001be4 <HAL_RCC_OscConfig+0x358>
 8001bcc:	4b5a      	ldr	r3, [pc, #360]	@ (8001d38 <HAL_RCC_OscConfig+0x4ac>)
 8001bce:	6f1b      	ldr	r3, [r3, #112]	@ 0x70
 8001bd0:	4a59      	ldr	r2, [pc, #356]	@ (8001d38 <HAL_RCC_OscConfig+0x4ac>)
 8001bd2:	f023 0301 	bic.w	r3, r3, #1
 8001bd6:	6713      	str	r3, [r2, #112]	@ 0x70
 8001bd8:	4b57      	ldr	r3, [pc, #348]	@ (8001d38 <HAL_RCC_OscConfig+0x4ac>)
 8001bda:	6f1b      	ldr	r3, [r3, #112]	@ 0x70
 8001bdc:	4a56      	ldr	r2, [pc, #344]	@ (8001d38 <HAL_RCC_OscConfig+0x4ac>)
 8001bde:	f023 0304 	bic.w	r3, r3, #4
 8001be2:	6713      	str	r3, [r2, #112]	@ 0x70
    /* Check the LSE State */
    if ((RCC_OscInitStruct->LSEState) != RCC_LSE_OFF)
 8001be4:	687b      	ldr	r3, [r7, #4]
 8001be6:	689b      	ldr	r3, [r3, #8]
 8001be8:	2b00      	cmp	r3, #0
 8001bea:	d015      	beq.n	8001c18 <HAL_RCC_OscConfig+0x38c>
    {
      /* Get Start Tick*/
      tickstart = HAL_GetTick();
 8001bec:	f7ff f85a 	bl	8000ca4 <HAL_GetTick>
 8001bf0:	6138      	str	r0, [r7, #16]

      /* Wait till LSE is ready */
      while (__HAL_RCC_GET_FLAG(RCC_FLAG_LSERDY) == RESET)
 8001bf2:	e00a      	b.n	8001c0a <HAL_RCC_OscConfig+0x37e>
      {
        if ((HAL_GetTick() - tickstart) > RCC_LSE_TIMEOUT_VALUE)
 8001bf4:	f7ff f856 	bl	8000ca4 <HAL_GetTick>
 8001bf8:	4602      	mov	r2, r0
 8001bfa:	693b      	ldr	r3, [r7, #16]
 8001bfc:	1ad3      	subs	r3, r2, r3
 8001bfe:	f241 3288 	movw	r2, #5000	@ 0x1388
 8001c02:	4293      	cmp	r3, r2
 8001c04:	d901      	bls.n	8001c0a <HAL_RCC_OscConfig+0x37e>
        {
          return HAL_TIMEOUT;
 8001c06:	2303      	movs	r3, #3
 8001c08:	e0d7      	b.n	8001dba <HAL_RCC_OscConfig+0x52e>
      while (__HAL_RCC_GET_FLAG(RCC_FLAG_LSERDY) == RESET)
 8001c0a:	4b4b      	ldr	r3, [pc, #300]	@ (8001d38 <HAL_RCC_OscConfig+0x4ac>)
 8001c0c:	6f1b      	ldr	r3, [r3, #112]	@ 0x70
 8001c0e:	f003 0302 	and.w	r3, r3, #2
 8001c12:	2b00      	cmp	r3, #0
 8001c14:	d0ee      	beq.n	8001bf4 <HAL_RCC_OscConfig+0x368>
 8001c16:	e014      	b.n	8001c42 <HAL_RCC_OscConfig+0x3b6>
      }
    }
    else
    {
      /* Get Start Tick*/
      tickstart = HAL_GetTick();
 8001c18:	f7ff f844 	bl	8000ca4 <HAL_GetTick>
 8001c1c:	6138      	str	r0, [r7, #16]

      /* Wait till LSE is ready */
      while (__HAL_RCC_GET_FLAG(RCC_FLAG_LSERDY) != RESET)
 8001c1e:	e00a      	b.n	8001c36 <HAL_RCC_OscConfig+0x3aa>
      {
        if ((HAL_GetTick() - tickstart) > RCC_LSE_TIMEOUT_VALUE)
 8001c20:	f7ff f840 	bl	8000ca4 <HAL_GetTick>
 8001c24:	4602      	mov	r2, r0
 8001c26:	693b      	ldr	r3, [r7, #16]
 8001c28:	1ad3      	subs	r3, r2, r3
 8001c2a:	f241 3288 	movw	r2, #5000	@ 0x1388
 8001c2e:	4293      	cmp	r3, r2
 8001c30:	d901      	bls.n	8001c36 <HAL_RCC_OscConfig+0x3aa>
        {
          return HAL_TIMEOUT;
 8001c32:	2303      	movs	r3, #3
 8001c34:	e0c1      	b.n	8001dba <HAL_RCC_OscConfig+0x52e>
      while (__HAL_RCC_GET_FLAG(RCC_FLAG_LSERDY) != RESET)
 8001c36:	4b40      	ldr	r3, [pc, #256]	@ (8001d38 <HAL_RCC_OscConfig+0x4ac>)
 8001c38:	6f1b      	ldr	r3, [r3, #112]	@ 0x70
 8001c3a:	f003 0302 	and.w	r3, r3, #2
 8001c3e:	2b00      	cmp	r3, #0
 8001c40:	d1ee      	bne.n	8001c20 <HAL_RCC_OscConfig+0x394>
        }
      }
    }

    /* Restore clock configuration if changed */
    if (pwrclkchanged == SET)
 8001c42:	7dfb      	ldrb	r3, [r7, #23]
 8001c44:	2b01      	cmp	r3, #1
 8001c46:	d105      	bne.n	8001c54 <HAL_RCC_OscConfig+0x3c8>
    {
      __HAL_RCC_PWR_CLK_DISABLE();
 8001c48:	4b3b      	ldr	r3, [pc, #236]	@ (8001d38 <HAL_RCC_OscConfig+0x4ac>)
 8001c4a:	6c1b      	ldr	r3, [r3, #64]	@ 0x40
 8001c4c:	4a3a      	ldr	r2, [pc, #232]	@ (8001d38 <HAL_RCC_OscConfig+0x4ac>)
 8001c4e:	f023 5380 	bic.w	r3, r3, #268435456	@ 0x10000000
 8001c52:	6413      	str	r3, [r2, #64]	@ 0x40
    }
  }
  /*-------------------------------- PLL Configuration -----------------------*/
  /* Check the parameters */
  assert_param(IS_RCC_PLL(RCC_OscInitStruct->PLL.PLLState));
  if ((RCC_OscInitStruct->PLL.PLLState) != RCC_PLL_NONE)
 8001c54:	687b      	ldr	r3, [r7, #4]
 8001c56:	699b      	ldr	r3, [r3, #24]
 8001c58:	2b00      	cmp	r3, #0
 8001c5a:	f000 80ad 	beq.w	8001db8 <HAL_RCC_OscConfig+0x52c>
  {
    /* Check if the PLL is used as system clock or not */
    if (__HAL_RCC_GET_SYSCLK_SOURCE() != RCC_CFGR_SWS_PLL)
 8001c5e:	4b36      	ldr	r3, [pc, #216]	@ (8001d38 <HAL_RCC_OscConfig+0x4ac>)
 8001c60:	689b      	ldr	r3, [r3, #8]
 8001c62:	f003 030c 	and.w	r3, r3, #12
 8001c66:	2b08      	cmp	r3, #8
 8001c68:	d060      	beq.n	8001d2c <HAL_RCC_OscConfig+0x4a0>
    {
      if ((RCC_OscInitStruct->PLL.PLLState) == RCC_PLL_ON)
 8001c6a:	687b      	ldr	r3, [r7, #4]
 8001c6c:	699b      	ldr	r3, [r3, #24]
 8001c6e:	2b02      	cmp	r3, #2
 8001c70:	d145      	bne.n	8001cfe <HAL_RCC_OscConfig+0x472>
        assert_param(IS_RCC_PLLP_VALUE(RCC_OscInitStruct->PLL.PLLP));
        assert_param(IS_RCC_PLLQ_VALUE(RCC_OscInitStruct->PLL.PLLQ));
        assert_param(IS_RCC_PLLR_VALUE(RCC_OscInitStruct->PLL.PLLR));

        /* Disable the main PLL. */
        __HAL_RCC_PLL_DISABLE();
 8001c72:	4b33      	ldr	r3, [pc, #204]	@ (8001d40 <HAL_RCC_OscConfig+0x4b4>)
 8001c74:	2200      	movs	r2, #0
 8001c76:	601a      	str	r2, [r3, #0]

        /* Get Start Tick*/
        tickstart = HAL_GetTick();
 8001c78:	f7ff f814 	bl	8000ca4 <HAL_GetTick>
 8001c7c:	6138      	str	r0, [r7, #16]

        /* Wait till PLL is ready */
        while (__HAL_RCC_GET_FLAG(RCC_FLAG_PLLRDY) != RESET)
 8001c7e:	e008      	b.n	8001c92 <HAL_RCC_OscConfig+0x406>
        {
          if ((HAL_GetTick() - tickstart) > PLL_TIMEOUT_VALUE)
 8001c80:	f7ff f810 	bl	8000ca4 <HAL_GetTick>
 8001c84:	4602      	mov	r2, r0
 8001c86:	693b      	ldr	r3, [r7, #16]
 8001c88:	1ad3      	subs	r3, r2, r3
 8001c8a:	2b02      	cmp	r3, #2
 8001c8c:	d901      	bls.n	8001c92 <HAL_RCC_OscConfig+0x406>
          {
            return HAL_TIMEOUT;
 8001c8e:	2303      	movs	r3, #3
 8001c90:	e093      	b.n	8001dba <HAL_RCC_OscConfig+0x52e>
        while (__HAL_RCC_GET_FLAG(RCC_FLAG_PLLRDY) != RESET)
 8001c92:	4b29      	ldr	r3, [pc, #164]	@ (8001d38 <HAL_RCC_OscConfig+0x4ac>)
 8001c94:	681b      	ldr	r3, [r3, #0]
 8001c96:	f003 7300 	and.w	r3, r3, #33554432	@ 0x2000000
 8001c9a:	2b00      	cmp	r3, #0
 8001c9c:	d1f0      	bne.n	8001c80 <HAL_RCC_OscConfig+0x3f4>
          }
        }

        /* Configure the main PLL clock source, multiplication and division factors. */
        WRITE_REG(RCC->PLLCFGR, (RCC_OscInitStruct->PLL.PLLSource                                            | \
 8001c9e:	687b      	ldr	r3, [r7, #4]
 8001ca0:	69da      	ldr	r2, [r3, #28]
 8001ca2:	687b      	ldr	r3, [r7, #4]
 8001ca4:	6a1b      	ldr	r3, [r3, #32]
 8001ca6:	431a      	orrs	r2, r3
 8001ca8:	687b      	ldr	r3, [r7, #4]
 8001caa:	6a5b      	ldr	r3, [r3, #36]	@ 0x24
 8001cac:	019b      	lsls	r3, r3, #6
 8001cae:	431a      	orrs	r2, r3
 8001cb0:	687b      	ldr	r3, [r7, #4]
 8001cb2:	6a9b      	ldr	r3, [r3, #40]	@ 0x28
 8001cb4:	085b      	lsrs	r3, r3, #1
 8001cb6:	3b01      	subs	r3, #1
 8001cb8:	041b      	lsls	r3, r3, #16
 8001cba:	431a      	orrs	r2, r3
 8001cbc:	687b      	ldr	r3, [r7, #4]
 8001cbe:	6adb      	ldr	r3, [r3, #44]	@ 0x2c
 8001cc0:	061b      	lsls	r3, r3, #24
 8001cc2:	431a      	orrs	r2, r3
 8001cc4:	687b      	ldr	r3, [r7, #4]
 8001cc6:	6b1b      	ldr	r3, [r3, #48]	@ 0x30
 8001cc8:	071b      	lsls	r3, r3, #28
 8001cca:	491b      	ldr	r1, [pc, #108]	@ (8001d38 <HAL_RCC_OscConfig+0x4ac>)
 8001ccc:	4313      	orrs	r3, r2
 8001cce:	604b      	str	r3, [r1, #4]
                                 (RCC_OscInitStruct->PLL.PLLN << RCC_PLLCFGR_PLLN_Pos)                       | \
                                 (((RCC_OscInitStruct->PLL.PLLP >> 1U) - 1U) << RCC_PLLCFGR_PLLP_Pos)        | \
                                 (RCC_OscInitStruct->PLL.PLLQ << RCC_PLLCFGR_PLLQ_Pos)                       | \
                                 (RCC_OscInitStruct->PLL.PLLR << RCC_PLLCFGR_PLLR_Pos)));
        /* Enable the main PLL. */
        __HAL_RCC_PLL_ENABLE();
 8001cd0:	4b1b      	ldr	r3, [pc, #108]	@ (8001d40 <HAL_RCC_OscConfig+0x4b4>)
 8001cd2:	2201      	movs	r2, #1
 8001cd4:	601a      	str	r2, [r3, #0]

        /* Get Start Tick*/
        tickstart = HAL_GetTick();
 8001cd6:	f7fe ffe5 	bl	8000ca4 <HAL_GetTick>
 8001cda:	6138      	str	r0, [r7, #16]

        /* Wait till PLL is ready */
        while (__HAL_RCC_GET_FLAG(RCC_FLAG_PLLRDY) == RESET)
 8001cdc:	e008      	b.n	8001cf0 <HAL_RCC_OscConfig+0x464>
        {
          if ((HAL_GetTick() - tickstart) > PLL_TIMEOUT_VALUE)
 8001cde:	f7fe ffe1 	bl	8000ca4 <HAL_GetTick>
 8001ce2:	4602      	mov	r2, r0
 8001ce4:	693b      	ldr	r3, [r7, #16]
 8001ce6:	1ad3      	subs	r3, r2, r3
 8001ce8:	2b02      	cmp	r3, #2
 8001cea:	d901      	bls.n	8001cf0 <HAL_RCC_OscConfig+0x464>
          {
            return HAL_TIMEOUT;
 8001cec:	2303      	movs	r3, #3
 8001cee:	e064      	b.n	8001dba <HAL_RCC_OscConfig+0x52e>
        while (__HAL_RCC_GET_FLAG(RCC_FLAG_PLLRDY) == RESET)
 8001cf0:	4b11      	ldr	r3, [pc, #68]	@ (8001d38 <HAL_RCC_OscConfig+0x4ac>)
 8001cf2:	681b      	ldr	r3, [r3, #0]
 8001cf4:	f003 7300 	and.w	r3, r3, #33554432	@ 0x2000000
 8001cf8:	2b00      	cmp	r3, #0
 8001cfa:	d0f0      	beq.n	8001cde <HAL_RCC_OscConfig+0x452>
 8001cfc:	e05c      	b.n	8001db8 <HAL_RCC_OscConfig+0x52c>
        }
      }
      else
      {
        /* Disable the main PLL. */
        __HAL_RCC_PLL_DISABLE();
 8001cfe:	4b10      	ldr	r3, [pc, #64]	@ (8001d40 <HAL_RCC_OscConfig+0x4b4>)
 8001d00:	2200      	movs	r2, #0
 8001d02:	601a      	str	r2, [r3, #0]

        /* Get Start Tick*/
        tickstart = HAL_GetTick();
 8001d04:	f7fe ffce 	bl	8000ca4 <HAL_GetTick>
 8001d08:	6138      	str	r0, [r7, #16]

        /* Wait till PLL is ready */
        while (__HAL_RCC_GET_FLAG(RCC_FLAG_PLLRDY) != RESET)
 8001d0a:	e008      	b.n	8001d1e <HAL_RCC_OscConfig+0x492>
        {
          if ((HAL_GetTick() - tickstart) > PLL_TIMEOUT_VALUE)
 8001d0c:	f7fe ffca 	bl	8000ca4 <HAL_GetTick>
 8001d10:	4602      	mov	r2, r0
 8001d12:	693b      	ldr	r3, [r7, #16]
 8001d14:	1ad3      	subs	r3, r2, r3
 8001d16:	2b02      	cmp	r3, #2
 8001d18:	d901      	bls.n	8001d1e <HAL_RCC_OscConfig+0x492>
          {
            return HAL_TIMEOUT;
 8001d1a:	2303      	movs	r3, #3
 8001d1c:	e04d      	b.n	8001dba <HAL_RCC_OscConfig+0x52e>
        while (__HAL_RCC_GET_FLAG(RCC_FLAG_PLLRDY) != RESET)
 8001d1e:	4b06      	ldr	r3, [pc, #24]	@ (8001d38 <HAL_RCC_OscConfig+0x4ac>)
 8001d20:	681b      	ldr	r3, [r3, #0]
 8001d22:	f003 7300 	and.w	r3, r3, #33554432	@ 0x2000000
 8001d26:	2b00      	cmp	r3, #0
 8001d28:	d1f0      	bne.n	8001d0c <HAL_RCC_OscConfig+0x480>
 8001d2a:	e045      	b.n	8001db8 <HAL_RCC_OscConfig+0x52c>
      }
    }
    else
    {
      /* Check if there is a request to disable the PLL used as System clock source */
      if ((RCC_OscInitStruct->PLL.PLLState) == RCC_PLL_OFF)
 8001d2c:	687b      	ldr	r3, [r7, #4]
 8001d2e:	699b      	ldr	r3, [r3, #24]
 8001d30:	2b01      	cmp	r3, #1
 8001d32:	d107      	bne.n	8001d44 <HAL_RCC_OscConfig+0x4b8>
      {
        return HAL_ERROR;
 8001d34:	2301      	movs	r3, #1
 8001d36:	e040      	b.n	8001dba <HAL_RCC_OscConfig+0x52e>
 8001d38:	40023800 	.word	0x40023800
 8001d3c:	40007000 	.word	0x40007000
 8001d40:	42470060 	.word	0x42470060
      }
      else
      {
        /* Do not return HAL_ERROR if request repeats the current configuration */
        pll_config = RCC->PLLCFGR;
 8001d44:	4b1f      	ldr	r3, [pc, #124]	@ (8001dc4 <HAL_RCC_OscConfig+0x538>)
 8001d46:	685b      	ldr	r3, [r3, #4]
 8001d48:	60fb      	str	r3, [r7, #12]
#if defined (RCC_PLLCFGR_PLLR)
        if (((RCC_OscInitStruct->PLL.PLLState) == RCC_PLL_OFF) ||
 8001d4a:	687b      	ldr	r3, [r7, #4]
 8001d4c:	699b      	ldr	r3, [r3, #24]
 8001d4e:	2b01      	cmp	r3, #1
 8001d50:	d030      	beq.n	8001db4 <HAL_RCC_OscConfig+0x528>
            (READ_BIT(pll_config, RCC_PLLCFGR_PLLSRC) != RCC_OscInitStruct->PLL.PLLSource) ||
 8001d52:	68fb      	ldr	r3, [r7, #12]
 8001d54:	f403 0280 	and.w	r2, r3, #4194304	@ 0x400000
 8001d58:	687b      	ldr	r3, [r7, #4]
 8001d5a:	69db      	ldr	r3, [r3, #28]
        if (((RCC_OscInitStruct->PLL.PLLState) == RCC_PLL_OFF) ||
 8001d5c:	429a      	cmp	r2, r3
 8001d5e:	d129      	bne.n	8001db4 <HAL_RCC_OscConfig+0x528>
            (READ_BIT(pll_config, RCC_PLLCFGR_PLLM) != (RCC_OscInitStruct->PLL.PLLM) << RCC_PLLCFGR_PLLM_Pos) ||
 8001d60:	68fb      	ldr	r3, [r7, #12]
 8001d62:	f003 023f 	and.w	r2, r3, #63	@ 0x3f
 8001d66:	687b      	ldr	r3, [r7, #4]
 8001d68:	6a1b      	ldr	r3, [r3, #32]
            (READ_BIT(pll_config, RCC_PLLCFGR_PLLSRC) != RCC_OscInitStruct->PLL.PLLSource) ||
 8001d6a:	429a      	cmp	r2, r3
 8001d6c:	d122      	bne.n	8001db4 <HAL_RCC_OscConfig+0x528>
            (READ_BIT(pll_config, RCC_PLLCFGR_PLLN) != (RCC_OscInitStruct->PLL.PLLN) << RCC_PLLCFGR_PLLN_Pos) ||
 8001d6e:	68fa      	ldr	r2, [r7, #12]
 8001d70:	f647 73c0 	movw	r3, #32704	@ 0x7fc0
 8001d74:	4013      	ands	r3, r2
 8001d76:	687a      	ldr	r2, [r7, #4]
 8001d78:	6a52      	ldr	r2, [r2, #36]	@ 0x24
 8001d7a:	0192      	lsls	r2, r2, #6
            (READ_BIT(pll_config, RCC_PLLCFGR_PLLM) != (RCC_OscInitStruct->PLL.PLLM) << RCC_PLLCFGR_PLLM_Pos) ||
 8001d7c:	4293      	cmp	r3, r2
 8001d7e:	d119      	bne.n	8001db4 <HAL_RCC_OscConfig+0x528>
            (READ_BIT(pll_config, RCC_PLLCFGR_PLLP) != (((RCC_OscInitStruct->PLL.PLLP >> 1U) - 1U)) << RCC_PLLCFGR_PLLP_Pos) ||
 8001d80:	68fb      	ldr	r3, [r7, #12]
 8001d82:	f403 3240 	and.w	r2, r3, #196608	@ 0x30000
 8001d86:	687b      	ldr	r3, [r7, #4]
 8001d88:	6a9b      	ldr	r3, [r3, #40]	@ 0x28
 8001d8a:	085b      	lsrs	r3, r3, #1
 8001d8c:	3b01      	subs	r3, #1
 8001d8e:	041b      	lsls	r3, r3, #16
            (READ_BIT(pll_config, RCC_PLLCFGR_PLLN) != (RCC_OscInitStruct->PLL.PLLN) << RCC_PLLCFGR_PLLN_Pos) ||
 8001d90:	429a      	cmp	r2, r3
 8001d92:	d10f      	bne.n	8001db4 <HAL_RCC_OscConfig+0x528>
            (READ_BIT(pll_config, RCC_PLLCFGR_PLLQ) != (RCC_OscInitStruct->PLL.PLLQ << RCC_PLLCFGR_PLLQ_Pos)) ||
 8001d94:	68fb      	ldr	r3, [r7, #12]
 8001d96:	f003 6270 	and.w	r2, r3, #251658240	@ 0xf000000
 8001d9a:	687b      	ldr	r3, [r7, #4]
 8001d9c:	6adb      	ldr	r3, [r3, #44]	@ 0x2c
 8001d9e:	061b      	lsls	r3, r3, #24
            (READ_BIT(pll_config, RCC_PLLCFGR_PLLP) != (((RCC_OscInitStruct->PLL.PLLP >> 1U) - 1U)) << RCC_PLLCFGR_PLLP_Pos) ||
 8001da0:	429a      	cmp	r2, r3
 8001da2:	d107      	bne.n	8001db4 <HAL_RCC_OscConfig+0x528>
            (READ_BIT(pll_config, RCC_PLLCFGR_PLLR) != (RCC_OscInitStruct->PLL.PLLR << RCC_PLLCFGR_PLLR_Pos)))
 8001da4:	68fb      	ldr	r3, [r7, #12]
 8001da6:	f003 42e0 	and.w	r2, r3, #1879048192	@ 0x70000000
 8001daa:	687b      	ldr	r3, [r7, #4]
 8001dac:	6b1b      	ldr	r3, [r3, #48]	@ 0x30
 8001dae:	071b      	lsls	r3, r3, #28
            (READ_BIT(pll_config, RCC_PLLCFGR_PLLQ) != (RCC_OscInitStruct->PLL.PLLQ << RCC_PLLCFGR_PLLQ_Pos)) ||
 8001db0:	429a      	cmp	r2, r3
 8001db2:	d001      	beq.n	8001db8 <HAL_RCC_OscConfig+0x52c>
            (READ_BIT(pll_config, RCC_PLLCFGR_PLLN) != (RCC_OscInitStruct->PLL.PLLN) << RCC_PLLCFGR_PLLN_Pos) ||
            (READ_BIT(pll_config, RCC_PLLCFGR_PLLP) != (((RCC_OscInitStruct->PLL.PLLP >> 1U) - 1U)) << RCC_PLLCFGR_PLLP_Pos) ||
            (READ_BIT(pll_config, RCC_PLLCFGR_PLLQ) != (RCC_OscInitStruct->PLL.PLLQ << RCC_PLLCFGR_PLLQ_Pos)))
#endif /* RCC_PLLCFGR_PLLR */
        {
          return HAL_ERROR;
 8001db4:	2301      	movs	r3, #1
 8001db6:	e000      	b.n	8001dba <HAL_RCC_OscConfig+0x52e>
        }
      }
    }
  }
  return HAL_OK;
 8001db8:	2300      	movs	r3, #0
}
 8001dba:	4618      	mov	r0, r3
 8001dbc:	3718      	adds	r7, #24
 8001dbe:	46bd      	mov	sp, r7
 8001dc0:	bd80      	pop	{r7, pc}
 8001dc2:	bf00      	nop
 8001dc4:	40023800 	.word	0x40023800

08001dc8 <HAL_TIM_Base_Init>:
  *         Ex: call @ref HAL_TIM_Base_DeInit() before HAL_TIM_Base_Init()
  * @param  htim TIM Base handle
  * @retval HAL status
  */
HAL_StatusTypeDef HAL_TIM_Base_Init(TIM_HandleTypeDef *htim)
{
 8001dc8:	b580      	push	{r7, lr}
 8001dca:	b082      	sub	sp, #8
 8001dcc:	af00      	add	r7, sp, #0
 8001dce:	6078      	str	r0, [r7, #4]
  /* Check the TIM handle allocation */
  if (htim == NULL)
 8001dd0:	687b      	ldr	r3, [r7, #4]
 8001dd2:	2b00      	cmp	r3, #0
 8001dd4:	d101      	bne.n	8001dda <HAL_TIM_Base_Init+0x12>
  {
    return HAL_ERROR;
 8001dd6:	2301      	movs	r3, #1
 8001dd8:	e041      	b.n	8001e5e <HAL_TIM_Base_Init+0x96>
  assert_param(IS_TIM_COUNTER_MODE(htim->Init.CounterMode));
  assert_param(IS_TIM_CLOCKDIVISION_DIV(htim->Init.ClockDivision));
  assert_param(IS_TIM_PERIOD(htim, htim->Init.Period));
  assert_param(IS_TIM_AUTORELOAD_PRELOAD(htim->Init.AutoReloadPreload));

  if (htim->State == HAL_TIM_STATE_RESET)
 8001dda:	687b      	ldr	r3, [r7, #4]
 8001ddc:	f893 303d 	ldrb.w	r3, [r3, #61]	@ 0x3d
 8001de0:	b2db      	uxtb	r3, r3
 8001de2:	2b00      	cmp	r3, #0
 8001de4:	d106      	bne.n	8001df4 <HAL_TIM_Base_Init+0x2c>
  {
    /* Allocate lock resource and initialize it */
    htim->Lock = HAL_UNLOCKED;
 8001de6:	687b      	ldr	r3, [r7, #4]
 8001de8:	2200      	movs	r2, #0
 8001dea:	f883 203c 	strb.w	r2, [r3, #60]	@ 0x3c
    }
    /* Init the low level hardware : GPIO, CLOCK, NVIC */
    htim->Base_MspInitCallback(htim);
#else
    /* Init the low level hardware : GPIO, CLOCK, NVIC */
    HAL_TIM_Base_MspInit(htim);
 8001dee:	6878      	ldr	r0, [r7, #4]
 8001df0:	f7fe fdbe 	bl	8000970 <HAL_TIM_Base_MspInit>
#endif /* USE_HAL_TIM_REGISTER_CALLBACKS */
  }

  /* Set the TIM state */
  htim->State = HAL_TIM_STATE_BUSY;
 8001df4:	687b      	ldr	r3, [r7, #4]
 8001df6:	2202      	movs	r2, #2
 8001df8:	f883 203d 	strb.w	r2, [r3, #61]	@ 0x3d

  /* Set the Time Base configuration */
  TIM_Base_SetConfig(htim->Instance, &htim->Init);
 8001dfc:	687b      	ldr	r3, [r7, #4]
 8001dfe:	681a      	ldr	r2, [r3, #0]
 8001e00:	687b      	ldr	r3, [r7, #4]
 8001e02:	3304      	adds	r3, #4
 8001e04:	4619      	mov	r1, r3
 8001e06:	4610      	mov	r0, r2
 8001e08:	f000 face 	bl	80023a8 <TIM_Base_SetConfig>

  /* Initialize the DMA burst operation state */
  htim->DMABurstState = HAL_DMA_BURST_STATE_READY;
 8001e0c:	687b      	ldr	r3, [r7, #4]
 8001e0e:	2201      	movs	r2, #1
 8001e10:	f883 2046 	strb.w	r2, [r3, #70]	@ 0x46

  /* Initialize the TIM channels state */
  TIM_CHANNEL_STATE_SET_ALL(htim, HAL_TIM_CHANNEL_STATE_READY);
 8001e14:	687b      	ldr	r3, [r7, #4]
 8001e16:	2201      	movs	r2, #1
 8001e18:	f883 203e 	strb.w	r2, [r3, #62]	@ 0x3e
 8001e1c:	687b      	ldr	r3, [r7, #4]
 8001e1e:	2201      	movs	r2, #1
 8001e20:	f883 203f 	strb.w	r2, [r3, #63]	@ 0x3f
 8001e24:	687b      	ldr	r3, [r7, #4]
 8001e26:	2201      	movs	r2, #1
 8001e28:	f883 2040 	strb.w	r2, [r3, #64]	@ 0x40
 8001e2c:	687b      	ldr	r3, [r7, #4]
 8001e2e:	2201      	movs	r2, #1
 8001e30:	f883 2041 	strb.w	r2, [r3, #65]	@ 0x41
  TIM_CHANNEL_N_STATE_SET_ALL(htim, HAL_TIM_CHANNEL_STATE_READY);
 8001e34:	687b      	ldr	r3, [r7, #4]
 8001e36:	2201      	movs	r2, #1
 8001e38:	f883 2042 	strb.w	r2, [r3, #66]	@ 0x42
 8001e3c:	687b      	ldr	r3, [r7, #4]
 8001e3e:	2201      	movs	r2, #1
 8001e40:	f883 2043 	strb.w	r2, [r3, #67]	@ 0x43
 8001e44:	687b      	ldr	r3, [r7, #4]
 8001e46:	2201      	movs	r2, #1
 8001e48:	f883 2044 	strb.w	r2, [r3, #68]	@ 0x44
 8001e4c:	687b      	ldr	r3, [r7, #4]
 8001e4e:	2201      	movs	r2, #1
 8001e50:	f883 2045 	strb.w	r2, [r3, #69]	@ 0x45

  /* Initialize the TIM state*/
  htim->State = HAL_TIM_STATE_READY;
 8001e54:	687b      	ldr	r3, [r7, #4]
 8001e56:	2201      	movs	r2, #1
 8001e58:	f883 203d 	strb.w	r2, [r3, #61]	@ 0x3d

  return HAL_OK;
 8001e5c:	2300      	movs	r3, #0
}
 8001e5e:	4618      	mov	r0, r3
 8001e60:	3708      	adds	r7, #8
 8001e62:	46bd      	mov	sp, r7
 8001e64:	bd80      	pop	{r7, pc}

08001e66 <HAL_TIM_PWM_Init>:
  *         Ex: call @ref HAL_TIM_PWM_DeInit() before HAL_TIM_PWM_Init()
  * @param  htim TIM PWM handle
  * @retval HAL status
  */
HAL_StatusTypeDef HAL_TIM_PWM_Init(TIM_HandleTypeDef *htim)
{
 8001e66:	b580      	push	{r7, lr}
 8001e68:	b082      	sub	sp, #8
 8001e6a:	af00      	add	r7, sp, #0
 8001e6c:	6078      	str	r0, [r7, #4]
  /* Check the TIM handle allocation */
  if (htim == NULL)
 8001e6e:	687b      	ldr	r3, [r7, #4]
 8001e70:	2b00      	cmp	r3, #0
 8001e72:	d101      	bne.n	8001e78 <HAL_TIM_PWM_Init+0x12>
  {
    return HAL_ERROR;
 8001e74:	2301      	movs	r3, #1
 8001e76:	e041      	b.n	8001efc <HAL_TIM_PWM_Init+0x96>
  assert_param(IS_TIM_COUNTER_MODE(htim->Init.CounterMode));
  assert_param(IS_TIM_CLOCKDIVISION_DIV(htim->Init.ClockDivision));
  assert_param(IS_TIM_PERIOD(htim, htim->Init.Period));
  assert_param(IS_TIM_AUTORELOAD_PRELOAD(htim->Init.AutoReloadPreload));

  if (htim->State == HAL_TIM_STATE_RESET)
 8001e78:	687b      	ldr	r3, [r7, #4]
 8001e7a:	f893 303d 	ldrb.w	r3, [r3, #61]	@ 0x3d
 8001e7e:	b2db      	uxtb	r3, r3
 8001e80:	2b00      	cmp	r3, #0
 8001e82:	d106      	bne.n	8001e92 <HAL_TIM_PWM_Init+0x2c>
  {
    /* Allocate lock resource and initialize it */
    htim->Lock = HAL_UNLOCKED;
 8001e84:	687b      	ldr	r3, [r7, #4]
 8001e86:	2200      	movs	r2, #0
 8001e88:	f883 203c 	strb.w	r2, [r3, #60]	@ 0x3c
    }
    /* Init the low level hardware : GPIO, CLOCK, NVIC */
    htim->PWM_MspInitCallback(htim);
#else
    /* Init the low level hardware : GPIO, CLOCK, NVIC and DMA */
    HAL_TIM_PWM_MspInit(htim);
 8001e8c:	6878      	ldr	r0, [r7, #4]
 8001e8e:	f7fe fd4f 	bl	8000930 <HAL_TIM_PWM_MspInit>
#endif /* USE_HAL_TIM_REGISTER_CALLBACKS */
  }

  /* Set the TIM state */
  htim->State = HAL_TIM_STATE_BUSY;
 8001e92:	687b      	ldr	r3, [r7, #4]
 8001e94:	2202      	movs	r2, #2
 8001e96:	f883 203d 	strb.w	r2, [r3, #61]	@ 0x3d

  /* Init the base time for the PWM */
  TIM_Base_SetConfig(htim->Instance, &htim->Init);
 8001e9a:	687b      	ldr	r3, [r7, #4]
 8001e9c:	681a      	ldr	r2, [r3, #0]
 8001e9e:	687b      	ldr	r3, [r7, #4]
 8001ea0:	3304      	adds	r3, #4
 8001ea2:	4619      	mov	r1, r3
 8001ea4:	4610      	mov	r0, r2
 8001ea6:	f000 fa7f 	bl	80023a8 <TIM_Base_SetConfig>

  /* Initialize the DMA burst operation state */
  htim->DMABurstState = HAL_DMA_BURST_STATE_READY;
 8001eaa:	687b      	ldr	r3, [r7, #4]
 8001eac:	2201      	movs	r2, #1
 8001eae:	f883 2046 	strb.w	r2, [r3, #70]	@ 0x46

  /* Initialize the TIM channels state */
  TIM_CHANNEL_STATE_SET_ALL(htim, HAL_TIM_CHANNEL_STATE_READY);
 8001eb2:	687b      	ldr	r3, [r7, #4]
 8001eb4:	2201      	movs	r2, #1
 8001eb6:	f883 203e 	strb.w	r2, [r3, #62]	@ 0x3e
 8001eba:	687b      	ldr	r3, [r7, #4]
 8001ebc:	2201      	movs	r2, #1
 8001ebe:	f883 203f 	strb.w	r2, [r3, #63]	@ 0x3f
 8001ec2:	687b      	ldr	r3, [r7, #4]
 8001ec4:	2201      	movs	r2, #1
 8001ec6:	f883 2040 	strb.w	r2, [r3, #64]	@ 0x40
 8001eca:	687b      	ldr	r3, [r7, #4]
 8001ecc:	2201      	movs	r2, #1
 8001ece:	f883 2041 	strb.w	r2, [r3, #65]	@ 0x41
  TIM_CHANNEL_N_STATE_SET_ALL(htim, HAL_TIM_CHANNEL_STATE_READY);
 8001ed2:	687b      	ldr	r3, [r7, #4]
 8001ed4:	2201      	movs	r2, #1
 8001ed6:	f883 2042 	strb.w	r2, [r3, #66]	@ 0x42
 8001eda:	687b      	ldr	r3, [r7, #4]
 8001edc:	2201      	movs	r2, #1
 8001ede:	f883 2043 	strb.w	r2, [r3, #67]	@ 0x43
 8001ee2:	687b      	ldr	r3, [r7, #4]
 8001ee4:	2201      	movs	r2, #1
 8001ee6:	f883 2044 	strb.w	r2, [r3, #68]	@ 0x44
 8001eea:	687b      	ldr	r3, [r7, #4]
 8001eec:	2201      	movs	r2, #1
 8001eee:	f883 2045 	strb.w	r2, [r3, #69]	@ 0x45

  /* Initialize the TIM state*/
  htim->State = HAL_TIM_STATE_READY;
 8001ef2:	687b      	ldr	r3, [r7, #4]
 8001ef4:	2201      	movs	r2, #1
 8001ef6:	f883 203d 	strb.w	r2, [r3, #61]	@ 0x3d

  return HAL_OK;
 8001efa:	2300      	movs	r3, #0
}
 8001efc:	4618      	mov	r0, r3
 8001efe:	3708      	adds	r7, #8
 8001f00:	46bd      	mov	sp, r7
 8001f02:	bd80      	pop	{r7, pc}

08001f04 <HAL_TIM_PWM_Start>:
  *            @arg TIM_CHANNEL_3: TIM Channel 3 selected
  *            @arg TIM_CHANNEL_4: TIM Channel 4 selected
  * @retval HAL status
  */
HAL_StatusTypeDef HAL_TIM_PWM_Start(TIM_HandleTypeDef *htim, uint32_t Channel)
{
 8001f04:	b580      	push	{r7, lr}
 8001f06:	b084      	sub	sp, #16
 8001f08:	af00      	add	r7, sp, #0
 8001f0a:	6078      	str	r0, [r7, #4]
 8001f0c:	6039      	str	r1, [r7, #0]

  /* Check the parameters */
  assert_param(IS_TIM_CCX_INSTANCE(htim->Instance, Channel));

  /* Check the TIM channel state */
  if (TIM_CHANNEL_STATE_GET(htim, Channel) != HAL_TIM_CHANNEL_STATE_READY)
 8001f0e:	683b      	ldr	r3, [r7, #0]
 8001f10:	2b00      	cmp	r3, #0
 8001f12:	d109      	bne.n	8001f28 <HAL_TIM_PWM_Start+0x24>
 8001f14:	687b      	ldr	r3, [r7, #4]
 8001f16:	f893 303e 	ldrb.w	r3, [r3, #62]	@ 0x3e
 8001f1a:	b2db      	uxtb	r3, r3
 8001f1c:	2b01      	cmp	r3, #1
 8001f1e:	bf14      	ite	ne
 8001f20:	2301      	movne	r3, #1
 8001f22:	2300      	moveq	r3, #0
 8001f24:	b2db      	uxtb	r3, r3
 8001f26:	e022      	b.n	8001f6e <HAL_TIM_PWM_Start+0x6a>
 8001f28:	683b      	ldr	r3, [r7, #0]
 8001f2a:	2b04      	cmp	r3, #4
 8001f2c:	d109      	bne.n	8001f42 <HAL_TIM_PWM_Start+0x3e>
 8001f2e:	687b      	ldr	r3, [r7, #4]
 8001f30:	f893 303f 	ldrb.w	r3, [r3, #63]	@ 0x3f
 8001f34:	b2db      	uxtb	r3, r3
 8001f36:	2b01      	cmp	r3, #1
 8001f38:	bf14      	ite	ne
 8001f3a:	2301      	movne	r3, #1
 8001f3c:	2300      	moveq	r3, #0
 8001f3e:	b2db      	uxtb	r3, r3
 8001f40:	e015      	b.n	8001f6e <HAL_TIM_PWM_Start+0x6a>
 8001f42:	683b      	ldr	r3, [r7, #0]
 8001f44:	2b08      	cmp	r3, #8
 8001f46:	d109      	bne.n	8001f5c <HAL_TIM_PWM_Start+0x58>
 8001f48:	687b      	ldr	r3, [r7, #4]
 8001f4a:	f893 3040 	ldrb.w	r3, [r3, #64]	@ 0x40
 8001f4e:	b2db      	uxtb	r3, r3
 8001f50:	2b01      	cmp	r3, #1
 8001f52:	bf14      	ite	ne
 8001f54:	2301      	movne	r3, #1
 8001f56:	2300      	moveq	r3, #0
 8001f58:	b2db      	uxtb	r3, r3
 8001f5a:	e008      	b.n	8001f6e <HAL_TIM_PWM_Start+0x6a>
 8001f5c:	687b      	ldr	r3, [r7, #4]
 8001f5e:	f893 3041 	ldrb.w	r3, [r3, #65]	@ 0x41
 8001f62:	b2db      	uxtb	r3, r3
 8001f64:	2b01      	cmp	r3, #1
 8001f66:	bf14      	ite	ne
 8001f68:	2301      	movne	r3, #1
 8001f6a:	2300      	moveq	r3, #0
 8001f6c:	b2db      	uxtb	r3, r3
 8001f6e:	2b00      	cmp	r3, #0
 8001f70:	d001      	beq.n	8001f76 <HAL_TIM_PWM_Start+0x72>
  {
    return HAL_ERROR;
 8001f72:	2301      	movs	r3, #1
 8001f74:	e07c      	b.n	8002070 <HAL_TIM_PWM_Start+0x16c>
  }

  /* Set the TIM channel state */
  TIM_CHANNEL_STATE_SET(htim, Channel, HAL_TIM_CHANNEL_STATE_BUSY);
 8001f76:	683b      	ldr	r3, [r7, #0]
 8001f78:	2b00      	cmp	r3, #0
 8001f7a:	d104      	bne.n	8001f86 <HAL_TIM_PWM_Start+0x82>
 8001f7c:	687b      	ldr	r3, [r7, #4]
 8001f7e:	2202      	movs	r2, #2
 8001f80:	f883 203e 	strb.w	r2, [r3, #62]	@ 0x3e
 8001f84:	e013      	b.n	8001fae <HAL_TIM_PWM_Start+0xaa>
 8001f86:	683b      	ldr	r3, [r7, #0]
 8001f88:	2b04      	cmp	r3, #4
 8001f8a:	d104      	bne.n	8001f96 <HAL_TIM_PWM_Start+0x92>
 8001f8c:	687b      	ldr	r3, [r7, #4]
 8001f8e:	2202      	movs	r2, #2
 8001f90:	f883 203f 	strb.w	r2, [r3, #63]	@ 0x3f
 8001f94:	e00b      	b.n	8001fae <HAL_TIM_PWM_Start+0xaa>
 8001f96:	683b      	ldr	r3, [r7, #0]
 8001f98:	2b08      	cmp	r3, #8
 8001f9a:	d104      	bne.n	8001fa6 <HAL_TIM_PWM_Start+0xa2>
 8001f9c:	687b      	ldr	r3, [r7, #4]
 8001f9e:	2202      	movs	r2, #2
 8001fa0:	f883 2040 	strb.w	r2, [r3, #64]	@ 0x40
 8001fa4:	e003      	b.n	8001fae <HAL_TIM_PWM_Start+0xaa>
 8001fa6:	687b      	ldr	r3, [r7, #4]
 8001fa8:	2202      	movs	r2, #2
 8001faa:	f883 2041 	strb.w	r2, [r3, #65]	@ 0x41

  /* Enable the Capture compare channel */
  TIM_CCxChannelCmd(htim->Instance, Channel, TIM_CCx_ENABLE);
 8001fae:	687b      	ldr	r3, [r7, #4]
 8001fb0:	681b      	ldr	r3, [r3, #0]
 8001fb2:	2201      	movs	r2, #1
 8001fb4:	6839      	ldr	r1, [r7, #0]
 8001fb6:	4618      	mov	r0, r3
 8001fb8:	f000 fcec 	bl	8002994 <TIM_CCxChannelCmd>

  if (IS_TIM_BREAK_INSTANCE(htim->Instance) != RESET)
 8001fbc:	687b      	ldr	r3, [r7, #4]
 8001fbe:	681b      	ldr	r3, [r3, #0]
 8001fc0:	4a2d      	ldr	r2, [pc, #180]	@ (8002078 <HAL_TIM_PWM_Start+0x174>)
 8001fc2:	4293      	cmp	r3, r2
 8001fc4:	d004      	beq.n	8001fd0 <HAL_TIM_PWM_Start+0xcc>
 8001fc6:	687b      	ldr	r3, [r7, #4]
 8001fc8:	681b      	ldr	r3, [r3, #0]
 8001fca:	4a2c      	ldr	r2, [pc, #176]	@ (800207c <HAL_TIM_PWM_Start+0x178>)
 8001fcc:	4293      	cmp	r3, r2
 8001fce:	d101      	bne.n	8001fd4 <HAL_TIM_PWM_Start+0xd0>
 8001fd0:	2301      	movs	r3, #1
 8001fd2:	e000      	b.n	8001fd6 <HAL_TIM_PWM_Start+0xd2>
 8001fd4:	2300      	movs	r3, #0
 8001fd6:	2b00      	cmp	r3, #0
 8001fd8:	d007      	beq.n	8001fea <HAL_TIM_PWM_Start+0xe6>
  {
    /* Enable the main output */
    __HAL_TIM_MOE_ENABLE(htim);
 8001fda:	687b      	ldr	r3, [r7, #4]
 8001fdc:	681b      	ldr	r3, [r3, #0]
 8001fde:	6c5a      	ldr	r2, [r3, #68]	@ 0x44
 8001fe0:	687b      	ldr	r3, [r7, #4]
 8001fe2:	681b      	ldr	r3, [r3, #0]
 8001fe4:	f442 4200 	orr.w	r2, r2, #32768	@ 0x8000
 8001fe8:	645a      	str	r2, [r3, #68]	@ 0x44
  }

  /* Enable the Peripheral, except in trigger mode where enable is automatically done with trigger */
  if (IS_TIM_SLAVE_INSTANCE(htim->Instance))
 8001fea:	687b      	ldr	r3, [r7, #4]
 8001fec:	681b      	ldr	r3, [r3, #0]
 8001fee:	4a22      	ldr	r2, [pc, #136]	@ (8002078 <HAL_TIM_PWM_Start+0x174>)
 8001ff0:	4293      	cmp	r3, r2
 8001ff2:	d022      	beq.n	800203a <HAL_TIM_PWM_Start+0x136>
 8001ff4:	687b      	ldr	r3, [r7, #4]
 8001ff6:	681b      	ldr	r3, [r3, #0]
 8001ff8:	f1b3 4f80 	cmp.w	r3, #1073741824	@ 0x40000000
 8001ffc:	d01d      	beq.n	800203a <HAL_TIM_PWM_Start+0x136>
 8001ffe:	687b      	ldr	r3, [r7, #4]
 8002000:	681b      	ldr	r3, [r3, #0]
 8002002:	4a1f      	ldr	r2, [pc, #124]	@ (8002080 <HAL_TIM_PWM_Start+0x17c>)
 8002004:	4293      	cmp	r3, r2
 8002006:	d018      	beq.n	800203a <HAL_TIM_PWM_Start+0x136>
 8002008:	687b      	ldr	r3, [r7, #4]
 800200a:	681b      	ldr	r3, [r3, #0]
 800200c:	4a1d      	ldr	r2, [pc, #116]	@ (8002084 <HAL_TIM_PWM_Start+0x180>)
 800200e:	4293      	cmp	r3, r2
 8002010:	d013      	beq.n	800203a <HAL_TIM_PWM_Start+0x136>
 8002012:	687b      	ldr	r3, [r7, #4]
 8002014:	681b      	ldr	r3, [r3, #0]
 8002016:	4a1c      	ldr	r2, [pc, #112]	@ (8002088 <HAL_TIM_PWM_Start+0x184>)
 8002018:	4293      	cmp	r3, r2
 800201a:	d00e      	beq.n	800203a <HAL_TIM_PWM_Start+0x136>
 800201c:	687b      	ldr	r3, [r7, #4]
 800201e:	681b      	ldr	r3, [r3, #0]
 8002020:	4a16      	ldr	r2, [pc, #88]	@ (800207c <HAL_TIM_PWM_Start+0x178>)
 8002022:	4293      	cmp	r3, r2
 8002024:	d009      	beq.n	800203a <HAL_TIM_PWM_Start+0x136>
 8002026:	687b      	ldr	r3, [r7, #4]
 8002028:	681b      	ldr	r3, [r3, #0]
 800202a:	4a18      	ldr	r2, [pc, #96]	@ (800208c <HAL_TIM_PWM_Start+0x188>)
 800202c:	4293      	cmp	r3, r2
 800202e:	d004      	beq.n	800203a <HAL_TIM_PWM_Start+0x136>
 8002030:	687b      	ldr	r3, [r7, #4]
 8002032:	681b      	ldr	r3, [r3, #0]
 8002034:	4a16      	ldr	r2, [pc, #88]	@ (8002090 <HAL_TIM_PWM_Start+0x18c>)
 8002036:	4293      	cmp	r3, r2
 8002038:	d111      	bne.n	800205e <HAL_TIM_PWM_Start+0x15a>
  {
    tmpsmcr = htim->Instance->SMCR & TIM_SMCR_SMS;
 800203a:	687b      	ldr	r3, [r7, #4]
 800203c:	681b      	ldr	r3, [r3, #0]
 800203e:	689b      	ldr	r3, [r3, #8]
 8002040:	f003 0307 	and.w	r3, r3, #7
 8002044:	60fb      	str	r3, [r7, #12]
    if (!IS_TIM_SLAVEMODE_TRIGGER_ENABLED(tmpsmcr))
 8002046:	68fb      	ldr	r3, [r7, #12]
 8002048:	2b06      	cmp	r3, #6
 800204a:	d010      	beq.n	800206e <HAL_TIM_PWM_Start+0x16a>
    {
      __HAL_TIM_ENABLE(htim);
 800204c:	687b      	ldr	r3, [r7, #4]
 800204e:	681b      	ldr	r3, [r3, #0]
 8002050:	681a      	ldr	r2, [r3, #0]
 8002052:	687b      	ldr	r3, [r7, #4]
 8002054:	681b      	ldr	r3, [r3, #0]
 8002056:	f042 0201 	orr.w	r2, r2, #1
 800205a:	601a      	str	r2, [r3, #0]
    if (!IS_TIM_SLAVEMODE_TRIGGER_ENABLED(tmpsmcr))
 800205c:	e007      	b.n	800206e <HAL_TIM_PWM_Start+0x16a>
    }
  }
  else
  {
    __HAL_TIM_ENABLE(htim);
 800205e:	687b      	ldr	r3, [r7, #4]
 8002060:	681b      	ldr	r3, [r3, #0]
 8002062:	681a      	ldr	r2, [r3, #0]
 8002064:	687b      	ldr	r3, [r7, #4]
 8002066:	681b      	ldr	r3, [r3, #0]
 8002068:	f042 0201 	orr.w	r2, r2, #1
 800206c:	601a      	str	r2, [r3, #0]
  }

  /* Return function status */
  return HAL_OK;
 800206e:	2300      	movs	r3, #0
}
 8002070:	4618      	mov	r0, r3
 8002072:	3710      	adds	r7, #16
 8002074:	46bd      	mov	sp, r7
 8002076:	bd80      	pop	{r7, pc}
 8002078:	40010000 	.word	0x40010000
 800207c:	40010400 	.word	0x40010400
 8002080:	40000400 	.word	0x40000400
 8002084:	40000800 	.word	0x40000800
 8002088:	40000c00 	.word	0x40000c00
 800208c:	40014000 	.word	0x40014000
 8002090:	40001800 	.word	0x40001800

08002094 <HAL_TIM_PWM_ConfigChannel>:
  * @retval HAL status
  */
HAL_StatusTypeDef HAL_TIM_PWM_ConfigChannel(TIM_HandleTypeDef *htim,
                                            const TIM_OC_InitTypeDef *sConfig,
                                            uint32_t Channel)
{
 8002094:	b580      	push	{r7, lr}
 8002096:	b086      	sub	sp, #24
 8002098:	af00      	add	r7, sp, #0
 800209a:	60f8      	str	r0, [r7, #12]
 800209c:	60b9      	str	r1, [r7, #8]
 800209e:	607a      	str	r2, [r7, #4]
  HAL_StatusTypeDef status = HAL_OK;
 80020a0:	2300      	movs	r3, #0
 80020a2:	75fb      	strb	r3, [r7, #23]
  assert_param(IS_TIM_PWM_MODE(sConfig->OCMode));
  assert_param(IS_TIM_OC_POLARITY(sConfig->OCPolarity));
  assert_param(IS_TIM_FAST_STATE(sConfig->OCFastMode));

  /* Process Locked */
  __HAL_LOCK(htim);
 80020a4:	68fb      	ldr	r3, [r7, #12]
 80020a6:	f893 303c 	ldrb.w	r3, [r3, #60]	@ 0x3c
 80020aa:	2b01      	cmp	r3, #1
 80020ac:	d101      	bne.n	80020b2 <HAL_TIM_PWM_ConfigChannel+0x1e>
 80020ae:	2302      	movs	r3, #2
 80020b0:	e0ae      	b.n	8002210 <HAL_TIM_PWM_ConfigChannel+0x17c>
 80020b2:	68fb      	ldr	r3, [r7, #12]
 80020b4:	2201      	movs	r2, #1
 80020b6:	f883 203c 	strb.w	r2, [r3, #60]	@ 0x3c

  switch (Channel)
 80020ba:	687b      	ldr	r3, [r7, #4]
 80020bc:	2b0c      	cmp	r3, #12
 80020be:	f200 809f 	bhi.w	8002200 <HAL_TIM_PWM_ConfigChannel+0x16c>
 80020c2:	a201      	add	r2, pc, #4	@ (adr r2, 80020c8 <HAL_TIM_PWM_ConfigChannel+0x34>)
 80020c4:	f852 f023 	ldr.w	pc, [r2, r3, lsl #2]
 80020c8:	080020fd 	.word	0x080020fd
 80020cc:	08002201 	.word	0x08002201
 80020d0:	08002201 	.word	0x08002201
 80020d4:	08002201 	.word	0x08002201
 80020d8:	0800213d 	.word	0x0800213d
 80020dc:	08002201 	.word	0x08002201
 80020e0:	08002201 	.word	0x08002201
 80020e4:	08002201 	.word	0x08002201
 80020e8:	0800217f 	.word	0x0800217f
 80020ec:	08002201 	.word	0x08002201
 80020f0:	08002201 	.word	0x08002201
 80020f4:	08002201 	.word	0x08002201
 80020f8:	080021bf 	.word	0x080021bf
    {
      /* Check the parameters */
      assert_param(IS_TIM_CC1_INSTANCE(htim->Instance));

      /* Configure the Channel 1 in PWM mode */
      TIM_OC1_SetConfig(htim->Instance, sConfig);
 80020fc:	68fb      	ldr	r3, [r7, #12]
 80020fe:	681b      	ldr	r3, [r3, #0]
 8002100:	68b9      	ldr	r1, [r7, #8]
 8002102:	4618      	mov	r0, r3
 8002104:	f000 f9fc 	bl	8002500 <TIM_OC1_SetConfig>

      /* Set the Preload enable bit for channel1 */
      htim->Instance->CCMR1 |= TIM_CCMR1_OC1PE;
 8002108:	68fb      	ldr	r3, [r7, #12]
 800210a:	681b      	ldr	r3, [r3, #0]
 800210c:	699a      	ldr	r2, [r3, #24]
 800210e:	68fb      	ldr	r3, [r7, #12]
 8002110:	681b      	ldr	r3, [r3, #0]
 8002112:	f042 0208 	orr.w	r2, r2, #8
 8002116:	619a      	str	r2, [r3, #24]

      /* Configure the Output Fast mode */
      htim->Instance->CCMR1 &= ~TIM_CCMR1_OC1FE;
 8002118:	68fb      	ldr	r3, [r7, #12]
 800211a:	681b      	ldr	r3, [r3, #0]
 800211c:	699a      	ldr	r2, [r3, #24]
 800211e:	68fb      	ldr	r3, [r7, #12]
 8002120:	681b      	ldr	r3, [r3, #0]
 8002122:	f022 0204 	bic.w	r2, r2, #4
 8002126:	619a      	str	r2, [r3, #24]
      htim->Instance->CCMR1 |= sConfig->OCFastMode;
 8002128:	68fb      	ldr	r3, [r7, #12]
 800212a:	681b      	ldr	r3, [r3, #0]
 800212c:	6999      	ldr	r1, [r3, #24]
 800212e:	68bb      	ldr	r3, [r7, #8]
 8002130:	691a      	ldr	r2, [r3, #16]
 8002132:	68fb      	ldr	r3, [r7, #12]
 8002134:	681b      	ldr	r3, [r3, #0]
 8002136:	430a      	orrs	r2, r1
 8002138:	619a      	str	r2, [r3, #24]
      break;
 800213a:	e064      	b.n	8002206 <HAL_TIM_PWM_ConfigChannel+0x172>
    {
      /* Check the parameters */
      assert_param(IS_TIM_CC2_INSTANCE(htim->Instance));

      /* Configure the Channel 2 in PWM mode */
      TIM_OC2_SetConfig(htim->Instance, sConfig);
 800213c:	68fb      	ldr	r3, [r7, #12]
 800213e:	681b      	ldr	r3, [r3, #0]
 8002140:	68b9      	ldr	r1, [r7, #8]
 8002142:	4618      	mov	r0, r3
 8002144:	f000 fa4c 	bl	80025e0 <TIM_OC2_SetConfig>

      /* Set the Preload enable bit for channel2 */
      htim->Instance->CCMR1 |= TIM_CCMR1_OC2PE;
 8002148:	68fb      	ldr	r3, [r7, #12]
 800214a:	681b      	ldr	r3, [r3, #0]
 800214c:	699a      	ldr	r2, [r3, #24]
 800214e:	68fb      	ldr	r3, [r7, #12]
 8002150:	681b      	ldr	r3, [r3, #0]
 8002152:	f442 6200 	orr.w	r2, r2, #2048	@ 0x800
 8002156:	619a      	str	r2, [r3, #24]

      /* Configure the Output Fast mode */
      htim->Instance->CCMR1 &= ~TIM_CCMR1_OC2FE;
 8002158:	68fb      	ldr	r3, [r7, #12]
 800215a:	681b      	ldr	r3, [r3, #0]
 800215c:	699a      	ldr	r2, [r3, #24]
 800215e:	68fb      	ldr	r3, [r7, #12]
 8002160:	681b      	ldr	r3, [r3, #0]
 8002162:	f422 6280 	bic.w	r2, r2, #1024	@ 0x400
 8002166:	619a      	str	r2, [r3, #24]
      htim->Instance->CCMR1 |= sConfig->OCFastMode << 8U;
 8002168:	68fb      	ldr	r3, [r7, #12]
 800216a:	681b      	ldr	r3, [r3, #0]
 800216c:	6999      	ldr	r1, [r3, #24]
 800216e:	68bb      	ldr	r3, [r7, #8]
 8002170:	691b      	ldr	r3, [r3, #16]
 8002172:	021a      	lsls	r2, r3, #8
 8002174:	68fb      	ldr	r3, [r7, #12]
 8002176:	681b      	ldr	r3, [r3, #0]
 8002178:	430a      	orrs	r2, r1
 800217a:	619a      	str	r2, [r3, #24]
      break;
 800217c:	e043      	b.n	8002206 <HAL_TIM_PWM_ConfigChannel+0x172>
    {
      /* Check the parameters */
      assert_param(IS_TIM_CC3_INSTANCE(htim->Instance));

      /* Configure the Channel 3 in PWM mode */
      TIM_OC3_SetConfig(htim->Instance, sConfig);
 800217e:	68fb      	ldr	r3, [r7, #12]
 8002180:	681b      	ldr	r3, [r3, #0]
 8002182:	68b9      	ldr	r1, [r7, #8]
 8002184:	4618      	mov	r0, r3
 8002186:	f000 faa1 	bl	80026cc <TIM_OC3_SetConfig>

      /* Set the Preload enable bit for channel3 */
      htim->Instance->CCMR2 |= TIM_CCMR2_OC3PE;
 800218a:	68fb      	ldr	r3, [r7, #12]
 800218c:	681b      	ldr	r3, [r3, #0]
 800218e:	69da      	ldr	r2, [r3, #28]
 8002190:	68fb      	ldr	r3, [r7, #12]
 8002192:	681b      	ldr	r3, [r3, #0]
 8002194:	f042 0208 	orr.w	r2, r2, #8
 8002198:	61da      	str	r2, [r3, #28]

      /* Configure the Output Fast mode */
      htim->Instance->CCMR2 &= ~TIM_CCMR2_OC3FE;
 800219a:	68fb      	ldr	r3, [r7, #12]
 800219c:	681b      	ldr	r3, [r3, #0]
 800219e:	69da      	ldr	r2, [r3, #28]
 80021a0:	68fb      	ldr	r3, [r7, #12]
 80021a2:	681b      	ldr	r3, [r3, #0]
 80021a4:	f022 0204 	bic.w	r2, r2, #4
 80021a8:	61da      	str	r2, [r3, #28]
      htim->Instance->CCMR2 |= sConfig->OCFastMode;
 80021aa:	68fb      	ldr	r3, [r7, #12]
 80021ac:	681b      	ldr	r3, [r3, #0]
 80021ae:	69d9      	ldr	r1, [r3, #28]
 80021b0:	68bb      	ldr	r3, [r7, #8]
 80021b2:	691a      	ldr	r2, [r3, #16]
 80021b4:	68fb      	ldr	r3, [r7, #12]
 80021b6:	681b      	ldr	r3, [r3, #0]
 80021b8:	430a      	orrs	r2, r1
 80021ba:	61da      	str	r2, [r3, #28]
      break;
 80021bc:	e023      	b.n	8002206 <HAL_TIM_PWM_ConfigChannel+0x172>
    {
      /* Check the parameters */
      assert_param(IS_TIM_CC4_INSTANCE(htim->Instance));

      /* Configure the Channel 4 in PWM mode */
      TIM_OC4_SetConfig(htim->Instance, sConfig);
 80021be:	68fb      	ldr	r3, [r7, #12]
 80021c0:	681b      	ldr	r3, [r3, #0]
 80021c2:	68b9      	ldr	r1, [r7, #8]
 80021c4:	4618      	mov	r0, r3
 80021c6:	f000 faf5 	bl	80027b4 <TIM_OC4_SetConfig>

      /* Set the Preload enable bit for channel4 */
      htim->Instance->CCMR2 |= TIM_CCMR2_OC4PE;
 80021ca:	68fb      	ldr	r3, [r7, #12]
 80021cc:	681b      	ldr	r3, [r3, #0]
 80021ce:	69da      	ldr	r2, [r3, #28]
 80021d0:	68fb      	ldr	r3, [r7, #12]
 80021d2:	681b      	ldr	r3, [r3, #0]
 80021d4:	f442 6200 	orr.w	r2, r2, #2048	@ 0x800
 80021d8:	61da      	str	r2, [r3, #28]

      /* Configure the Output Fast mode */
      htim->Instance->CCMR2 &= ~TIM_CCMR2_OC4FE;
 80021da:	68fb      	ldr	r3, [r7, #12]
 80021dc:	681b      	ldr	r3, [r3, #0]
 80021de:	69da      	ldr	r2, [r3, #28]
 80021e0:	68fb      	ldr	r3, [r7, #12]
 80021e2:	681b      	ldr	r3, [r3, #0]
 80021e4:	f422 6280 	bic.w	r2, r2, #1024	@ 0x400
 80021e8:	61da      	str	r2, [r3, #28]
      htim->Instance->CCMR2 |= sConfig->OCFastMode << 8U;
 80021ea:	68fb      	ldr	r3, [r7, #12]
 80021ec:	681b      	ldr	r3, [r3, #0]
 80021ee:	69d9      	ldr	r1, [r3, #28]
 80021f0:	68bb      	ldr	r3, [r7, #8]
 80021f2:	691b      	ldr	r3, [r3, #16]
 80021f4:	021a      	lsls	r2, r3, #8
 80021f6:	68fb      	ldr	r3, [r7, #12]
 80021f8:	681b      	ldr	r3, [r3, #0]
 80021fa:	430a      	orrs	r2, r1
 80021fc:	61da      	str	r2, [r3, #28]
      break;
 80021fe:	e002      	b.n	8002206 <HAL_TIM_PWM_ConfigChannel+0x172>
    }

    default:
      status = HAL_ERROR;
 8002200:	2301      	movs	r3, #1
 8002202:	75fb      	strb	r3, [r7, #23]
      break;
 8002204:	bf00      	nop
  }

  __HAL_UNLOCK(htim);
 8002206:	68fb      	ldr	r3, [r7, #12]
 8002208:	2200      	movs	r2, #0
 800220a:	f883 203c 	strb.w	r2, [r3, #60]	@ 0x3c

  return status;
 800220e:	7dfb      	ldrb	r3, [r7, #23]
}
 8002210:	4618      	mov	r0, r3
 8002212:	3718      	adds	r7, #24
 8002214:	46bd      	mov	sp, r7
 8002216:	bd80      	pop	{r7, pc}

08002218 <HAL_TIM_ConfigClockSource>:
  * @param  sClockSourceConfig pointer to a TIM_ClockConfigTypeDef structure that
  *         contains the clock source information for the TIM peripheral.
  * @retval HAL status
  */
HAL_StatusTypeDef HAL_TIM_ConfigClockSource(TIM_HandleTypeDef *htim, const TIM_ClockConfigTypeDef *sClockSourceConfig)
{
 8002218:	b580      	push	{r7, lr}
 800221a:	b084      	sub	sp, #16
 800221c:	af00      	add	r7, sp, #0
 800221e:	6078      	str	r0, [r7, #4]
 8002220:	6039      	str	r1, [r7, #0]
  HAL_StatusTypeDef status = HAL_OK;
 8002222:	2300      	movs	r3, #0
 8002224:	73fb      	strb	r3, [r7, #15]
  uint32_t tmpsmcr;

  /* Process Locked */
  __HAL_LOCK(htim);
 8002226:	687b      	ldr	r3, [r7, #4]
 8002228:	f893 303c 	ldrb.w	r3, [r3, #60]	@ 0x3c
 800222c:	2b01      	cmp	r3, #1
 800222e:	d101      	bne.n	8002234 <HAL_TIM_ConfigClockSource+0x1c>
 8002230:	2302      	movs	r3, #2
 8002232:	e0b4      	b.n	800239e <HAL_TIM_ConfigClockSource+0x186>
 8002234:	687b      	ldr	r3, [r7, #4]
 8002236:	2201      	movs	r2, #1
 8002238:	f883 203c 	strb.w	r2, [r3, #60]	@ 0x3c

  htim->State = HAL_TIM_STATE_BUSY;
 800223c:	687b      	ldr	r3, [r7, #4]
 800223e:	2202      	movs	r2, #2
 8002240:	f883 203d 	strb.w	r2, [r3, #61]	@ 0x3d

  /* Check the parameters */
  assert_param(IS_TIM_CLOCKSOURCE(sClockSourceConfig->ClockSource));

  /* Reset the SMS, TS, ECE, ETPS and ETRF bits */
  tmpsmcr = htim->Instance->SMCR;
 8002244:	687b      	ldr	r3, [r7, #4]
 8002246:	681b      	ldr	r3, [r3, #0]
 8002248:	689b      	ldr	r3, [r3, #8]
 800224a:	60bb      	str	r3, [r7, #8]
  tmpsmcr &= ~(TIM_SMCR_SMS | TIM_SMCR_TS);
 800224c:	68bb      	ldr	r3, [r7, #8]
 800224e:	f023 0377 	bic.w	r3, r3, #119	@ 0x77
 8002252:	60bb      	str	r3, [r7, #8]
  tmpsmcr &= ~(TIM_SMCR_ETF | TIM_SMCR_ETPS | TIM_SMCR_ECE | TIM_SMCR_ETP);
 8002254:	68bb      	ldr	r3, [r7, #8]
 8002256:	f423 437f 	bic.w	r3, r3, #65280	@ 0xff00
 800225a:	60bb      	str	r3, [r7, #8]
  htim->Instance->SMCR = tmpsmcr;
 800225c:	687b      	ldr	r3, [r7, #4]
 800225e:	681b      	ldr	r3, [r3, #0]
 8002260:	68ba      	ldr	r2, [r7, #8]
 8002262:	609a      	str	r2, [r3, #8]

  switch (sClockSourceConfig->ClockSource)
 8002264:	683b      	ldr	r3, [r7, #0]
 8002266:	681b      	ldr	r3, [r3, #0]
 8002268:	f5b3 5f00 	cmp.w	r3, #8192	@ 0x2000
 800226c:	d03e      	beq.n	80022ec <HAL_TIM_ConfigClockSource+0xd4>
 800226e:	f5b3 5f00 	cmp.w	r3, #8192	@ 0x2000
 8002272:	f200 8087 	bhi.w	8002384 <HAL_TIM_ConfigClockSource+0x16c>
 8002276:	f5b3 5f80 	cmp.w	r3, #4096	@ 0x1000
 800227a:	f000 8086 	beq.w	800238a <HAL_TIM_ConfigClockSource+0x172>
 800227e:	f5b3 5f80 	cmp.w	r3, #4096	@ 0x1000
 8002282:	d87f      	bhi.n	8002384 <HAL_TIM_ConfigClockSource+0x16c>
 8002284:	2b70      	cmp	r3, #112	@ 0x70
 8002286:	d01a      	beq.n	80022be <HAL_TIM_ConfigClockSource+0xa6>
 8002288:	2b70      	cmp	r3, #112	@ 0x70
 800228a:	d87b      	bhi.n	8002384 <HAL_TIM_ConfigClockSource+0x16c>
 800228c:	2b60      	cmp	r3, #96	@ 0x60
 800228e:	d050      	beq.n	8002332 <HAL_TIM_ConfigClockSource+0x11a>
 8002290:	2b60      	cmp	r3, #96	@ 0x60
 8002292:	d877      	bhi.n	8002384 <HAL_TIM_ConfigClockSource+0x16c>
 8002294:	2b50      	cmp	r3, #80	@ 0x50
 8002296:	d03c      	beq.n	8002312 <HAL_TIM_ConfigClockSource+0xfa>
 8002298:	2b50      	cmp	r3, #80	@ 0x50
 800229a:	d873      	bhi.n	8002384 <HAL_TIM_ConfigClockSource+0x16c>
 800229c:	2b40      	cmp	r3, #64	@ 0x40
 800229e:	d058      	beq.n	8002352 <HAL_TIM_ConfigClockSource+0x13a>
 80022a0:	2b40      	cmp	r3, #64	@ 0x40
 80022a2:	d86f      	bhi.n	8002384 <HAL_TIM_ConfigClockSource+0x16c>
 80022a4:	2b30      	cmp	r3, #48	@ 0x30
 80022a6:	d064      	beq.n	8002372 <HAL_TIM_ConfigClockSource+0x15a>
 80022a8:	2b30      	cmp	r3, #48	@ 0x30
 80022aa:	d86b      	bhi.n	8002384 <HAL_TIM_ConfigClockSource+0x16c>
 80022ac:	2b20      	cmp	r3, #32
 80022ae:	d060      	beq.n	8002372 <HAL_TIM_ConfigClockSource+0x15a>
 80022b0:	2b20      	cmp	r3, #32
 80022b2:	d867      	bhi.n	8002384 <HAL_TIM_ConfigClockSource+0x16c>
 80022b4:	2b00      	cmp	r3, #0
 80022b6:	d05c      	beq.n	8002372 <HAL_TIM_ConfigClockSource+0x15a>
 80022b8:	2b10      	cmp	r3, #16
 80022ba:	d05a      	beq.n	8002372 <HAL_TIM_ConfigClockSource+0x15a>
 80022bc:	e062      	b.n	8002384 <HAL_TIM_ConfigClockSource+0x16c>
      assert_param(IS_TIM_CLOCKPRESCALER(sClockSourceConfig->ClockPrescaler));
      assert_param(IS_TIM_CLOCKPOLARITY(sClockSourceConfig->ClockPolarity));
      assert_param(IS_TIM_CLOCKFILTER(sClockSourceConfig->ClockFilter));

      /* Configure the ETR Clock source */
      TIM_ETR_SetConfig(htim->Instance,
 80022be:	687b      	ldr	r3, [r7, #4]
 80022c0:	6818      	ldr	r0, [r3, #0]
                        sClockSourceConfig->ClockPrescaler,
 80022c2:	683b      	ldr	r3, [r7, #0]
 80022c4:	6899      	ldr	r1, [r3, #8]
                        sClockSourceConfig->ClockPolarity,
 80022c6:	683b      	ldr	r3, [r7, #0]
 80022c8:	685a      	ldr	r2, [r3, #4]
                        sClockSourceConfig->ClockFilter);
 80022ca:	683b      	ldr	r3, [r7, #0]
 80022cc:	68db      	ldr	r3, [r3, #12]
      TIM_ETR_SetConfig(htim->Instance,
 80022ce:	f000 fb41 	bl	8002954 <TIM_ETR_SetConfig>

      /* Select the External clock mode1 and the ETRF trigger */
      tmpsmcr = htim->Instance->SMCR;
 80022d2:	687b      	ldr	r3, [r7, #4]
 80022d4:	681b      	ldr	r3, [r3, #0]
 80022d6:	689b      	ldr	r3, [r3, #8]
 80022d8:	60bb      	str	r3, [r7, #8]
      tmpsmcr |= (TIM_SLAVEMODE_EXTERNAL1 | TIM_CLOCKSOURCE_ETRMODE1);
 80022da:	68bb      	ldr	r3, [r7, #8]
 80022dc:	f043 0377 	orr.w	r3, r3, #119	@ 0x77
 80022e0:	60bb      	str	r3, [r7, #8]
      /* Write to TIMx SMCR */
      htim->Instance->SMCR = tmpsmcr;
 80022e2:	687b      	ldr	r3, [r7, #4]
 80022e4:	681b      	ldr	r3, [r3, #0]
 80022e6:	68ba      	ldr	r2, [r7, #8]
 80022e8:	609a      	str	r2, [r3, #8]
      break;
 80022ea:	e04f      	b.n	800238c <HAL_TIM_ConfigClockSource+0x174>
      assert_param(IS_TIM_CLOCKPRESCALER(sClockSourceConfig->ClockPrescaler));
      assert_param(IS_TIM_CLOCKPOLARITY(sClockSourceConfig->ClockPolarity));
      assert_param(IS_TIM_CLOCKFILTER(sClockSourceConfig->ClockFilter));

      /* Configure the ETR Clock source */
      TIM_ETR_SetConfig(htim->Instance,
 80022ec:	687b      	ldr	r3, [r7, #4]
 80022ee:	6818      	ldr	r0, [r3, #0]
                        sClockSourceConfig->ClockPrescaler,
 80022f0:	683b      	ldr	r3, [r7, #0]
 80022f2:	6899      	ldr	r1, [r3, #8]
                        sClockSourceConfig->ClockPolarity,
 80022f4:	683b      	ldr	r3, [r7, #0]
 80022f6:	685a      	ldr	r2, [r3, #4]
                        sClockSourceConfig->ClockFilter);
 80022f8:	683b      	ldr	r3, [r7, #0]
 80022fa:	68db      	ldr	r3, [r3, #12]
      TIM_ETR_SetConfig(htim->Instance,
 80022fc:	f000 fb2a 	bl	8002954 <TIM_ETR_SetConfig>
      /* Enable the External clock mode2 */
      htim->Instance->SMCR |= TIM_SMCR_ECE;
 8002300:	687b      	ldr	r3, [r7, #4]
 8002302:	681b      	ldr	r3, [r3, #0]
 8002304:	689a      	ldr	r2, [r3, #8]
 8002306:	687b      	ldr	r3, [r7, #4]
 8002308:	681b      	ldr	r3, [r3, #0]
 800230a:	f442 4280 	orr.w	r2, r2, #16384	@ 0x4000
 800230e:	609a      	str	r2, [r3, #8]
      break;
 8002310:	e03c      	b.n	800238c <HAL_TIM_ConfigClockSource+0x174>

      /* Check TI1 input conditioning related parameters */
      assert_param(IS_TIM_CLOCKPOLARITY(sClockSourceConfig->ClockPolarity));
      assert_param(IS_TIM_CLOCKFILTER(sClockSourceConfig->ClockFilter));

      TIM_TI1_ConfigInputStage(htim->Instance,
 8002312:	687b      	ldr	r3, [r7, #4]
 8002314:	6818      	ldr	r0, [r3, #0]
                               sClockSourceConfig->ClockPolarity,
 8002316:	683b      	ldr	r3, [r7, #0]
 8002318:	6859      	ldr	r1, [r3, #4]
                               sClockSourceConfig->ClockFilter);
 800231a:	683b      	ldr	r3, [r7, #0]
 800231c:	68db      	ldr	r3, [r3, #12]
      TIM_TI1_ConfigInputStage(htim->Instance,
 800231e:	461a      	mov	r2, r3
 8002320:	f000 fa9e 	bl	8002860 <TIM_TI1_ConfigInputStage>
      TIM_ITRx_SetConfig(htim->Instance, TIM_CLOCKSOURCE_TI1);
 8002324:	687b      	ldr	r3, [r7, #4]
 8002326:	681b      	ldr	r3, [r3, #0]
 8002328:	2150      	movs	r1, #80	@ 0x50
 800232a:	4618      	mov	r0, r3
 800232c:	f000 faf7 	bl	800291e <TIM_ITRx_SetConfig>
      break;
 8002330:	e02c      	b.n	800238c <HAL_TIM_ConfigClockSource+0x174>

      /* Check TI2 input conditioning related parameters */
      assert_param(IS_TIM_CLOCKPOLARITY(sClockSourceConfig->ClockPolarity));
      assert_param(IS_TIM_CLOCKFILTER(sClockSourceConfig->ClockFilter));

      TIM_TI2_ConfigInputStage(htim->Instance,
 8002332:	687b      	ldr	r3, [r7, #4]
 8002334:	6818      	ldr	r0, [r3, #0]
                               sClockSourceConfig->ClockPolarity,
 8002336:	683b      	ldr	r3, [r7, #0]
 8002338:	6859      	ldr	r1, [r3, #4]
                               sClockSourceConfig->ClockFilter);
 800233a:	683b      	ldr	r3, [r7, #0]
 800233c:	68db      	ldr	r3, [r3, #12]
      TIM_TI2_ConfigInputStage(htim->Instance,
 800233e:	461a      	mov	r2, r3
 8002340:	f000 fabd 	bl	80028be <TIM_TI2_ConfigInputStage>
      TIM_ITRx_SetConfig(htim->Instance, TIM_CLOCKSOURCE_TI2);
 8002344:	687b      	ldr	r3, [r7, #4]
 8002346:	681b      	ldr	r3, [r3, #0]
 8002348:	2160      	movs	r1, #96	@ 0x60
 800234a:	4618      	mov	r0, r3
 800234c:	f000 fae7 	bl	800291e <TIM_ITRx_SetConfig>
      break;
 8002350:	e01c      	b.n	800238c <HAL_TIM_ConfigClockSource+0x174>

      /* Check TI1 input conditioning related parameters */
      assert_param(IS_TIM_CLOCKPOLARITY(sClockSourceConfig->ClockPolarity));
      assert_param(IS_TIM_CLOCKFILTER(sClockSourceConfig->ClockFilter));

      TIM_TI1_ConfigInputStage(htim->Instance,
 8002352:	687b      	ldr	r3, [r7, #4]
 8002354:	6818      	ldr	r0, [r3, #0]
                               sClockSourceConfig->ClockPolarity,
 8002356:	683b      	ldr	r3, [r7, #0]
 8002358:	6859      	ldr	r1, [r3, #4]
                               sClockSourceConfig->ClockFilter);
 800235a:	683b      	ldr	r3, [r7, #0]
 800235c:	68db      	ldr	r3, [r3, #12]
      TIM_TI1_ConfigInputStage(htim->Instance,
 800235e:	461a      	mov	r2, r3
 8002360:	f000 fa7e 	bl	8002860 <TIM_TI1_ConfigInputStage>
      TIM_ITRx_SetConfig(htim->Instance, TIM_CLOCKSOURCE_TI1ED);
 8002364:	687b      	ldr	r3, [r7, #4]
 8002366:	681b      	ldr	r3, [r3, #0]
 8002368:	2140      	movs	r1, #64	@ 0x40
 800236a:	4618      	mov	r0, r3
 800236c:	f000 fad7 	bl	800291e <TIM_ITRx_SetConfig>
      break;
 8002370:	e00c      	b.n	800238c <HAL_TIM_ConfigClockSource+0x174>
    case TIM_CLOCKSOURCE_ITR3:
    {
      /* Check whether or not the timer instance supports internal trigger input */
      assert_param(IS_TIM_CLOCKSOURCE_ITRX_INSTANCE(htim->Instance));

      TIM_ITRx_SetConfig(htim->Instance, sClockSourceConfig->ClockSource);
 8002372:	687b      	ldr	r3, [r7, #4]
 8002374:	681a      	ldr	r2, [r3, #0]
 8002376:	683b      	ldr	r3, [r7, #0]
 8002378:	681b      	ldr	r3, [r3, #0]
 800237a:	4619      	mov	r1, r3
 800237c:	4610      	mov	r0, r2
 800237e:	f000 face 	bl	800291e <TIM_ITRx_SetConfig>
      break;
 8002382:	e003      	b.n	800238c <HAL_TIM_ConfigClockSource+0x174>
    }

    default:
      status = HAL_ERROR;
 8002384:	2301      	movs	r3, #1
 8002386:	73fb      	strb	r3, [r7, #15]
      break;
 8002388:	e000      	b.n	800238c <HAL_TIM_ConfigClockSource+0x174>
      break;
 800238a:	bf00      	nop
  }
  htim->State = HAL_TIM_STATE_READY;
 800238c:	687b      	ldr	r3, [r7, #4]
 800238e:	2201      	movs	r2, #1
 8002390:	f883 203d 	strb.w	r2, [r3, #61]	@ 0x3d

  __HAL_UNLOCK(htim);
 8002394:	687b      	ldr	r3, [r7, #4]
 8002396:	2200      	movs	r2, #0
 8002398:	f883 203c 	strb.w	r2, [r3, #60]	@ 0x3c

  return status;
 800239c:	7bfb      	ldrb	r3, [r7, #15]
}
 800239e:	4618      	mov	r0, r3
 80023a0:	3710      	adds	r7, #16
 80023a2:	46bd      	mov	sp, r7
 80023a4:	bd80      	pop	{r7, pc}
	...

080023a8 <TIM_Base_SetConfig>:
  * @param  TIMx TIM peripheral
  * @param  Structure TIM Base configuration structure
  * @retval None
  */
void TIM_Base_SetConfig(TIM_TypeDef *TIMx, const TIM_Base_InitTypeDef *Structure)
{
 80023a8:	b480      	push	{r7}
 80023aa:	b085      	sub	sp, #20
 80023ac:	af00      	add	r7, sp, #0
 80023ae:	6078      	str	r0, [r7, #4]
 80023b0:	6039      	str	r1, [r7, #0]
  uint32_t tmpcr1;
  tmpcr1 = TIMx->CR1;
 80023b2:	687b      	ldr	r3, [r7, #4]
 80023b4:	681b      	ldr	r3, [r3, #0]
 80023b6:	60fb      	str	r3, [r7, #12]

  /* Set TIM Time Base Unit parameters ---------------------------------------*/
  if (IS_TIM_COUNTER_MODE_SELECT_INSTANCE(TIMx))
 80023b8:	687b      	ldr	r3, [r7, #4]
 80023ba:	4a46      	ldr	r2, [pc, #280]	@ (80024d4 <TIM_Base_SetConfig+0x12c>)
 80023bc:	4293      	cmp	r3, r2
 80023be:	d013      	beq.n	80023e8 <TIM_Base_SetConfig+0x40>
 80023c0:	687b      	ldr	r3, [r7, #4]
 80023c2:	f1b3 4f80 	cmp.w	r3, #1073741824	@ 0x40000000
 80023c6:	d00f      	beq.n	80023e8 <TIM_Base_SetConfig+0x40>
 80023c8:	687b      	ldr	r3, [r7, #4]
 80023ca:	4a43      	ldr	r2, [pc, #268]	@ (80024d8 <TIM_Base_SetConfig+0x130>)
 80023cc:	4293      	cmp	r3, r2
 80023ce:	d00b      	beq.n	80023e8 <TIM_Base_SetConfig+0x40>
 80023d0:	687b      	ldr	r3, [r7, #4]
 80023d2:	4a42      	ldr	r2, [pc, #264]	@ (80024dc <TIM_Base_SetConfig+0x134>)
 80023d4:	4293      	cmp	r3, r2
 80023d6:	d007      	beq.n	80023e8 <TIM_Base_SetConfig+0x40>
 80023d8:	687b      	ldr	r3, [r7, #4]
 80023da:	4a41      	ldr	r2, [pc, #260]	@ (80024e0 <TIM_Base_SetConfig+0x138>)
 80023dc:	4293      	cmp	r3, r2
 80023de:	d003      	beq.n	80023e8 <TIM_Base_SetConfig+0x40>
 80023e0:	687b      	ldr	r3, [r7, #4]
 80023e2:	4a40      	ldr	r2, [pc, #256]	@ (80024e4 <TIM_Base_SetConfig+0x13c>)
 80023e4:	4293      	cmp	r3, r2
 80023e6:	d108      	bne.n	80023fa <TIM_Base_SetConfig+0x52>
  {
    /* Select the Counter Mode */
    tmpcr1 &= ~(TIM_CR1_DIR | TIM_CR1_CMS);
 80023e8:	68fb      	ldr	r3, [r7, #12]
 80023ea:	f023 0370 	bic.w	r3, r3, #112	@ 0x70
 80023ee:	60fb      	str	r3, [r7, #12]
    tmpcr1 |= Structure->CounterMode;
 80023f0:	683b      	ldr	r3, [r7, #0]
 80023f2:	685b      	ldr	r3, [r3, #4]
 80023f4:	68fa      	ldr	r2, [r7, #12]
 80023f6:	4313      	orrs	r3, r2
 80023f8:	60fb      	str	r3, [r7, #12]
  }

  if (IS_TIM_CLOCK_DIVISION_INSTANCE(TIMx))
 80023fa:	687b      	ldr	r3, [r7, #4]
 80023fc:	4a35      	ldr	r2, [pc, #212]	@ (80024d4 <TIM_Base_SetConfig+0x12c>)
 80023fe:	4293      	cmp	r3, r2
 8002400:	d02b      	beq.n	800245a <TIM_Base_SetConfig+0xb2>
 8002402:	687b      	ldr	r3, [r7, #4]
 8002404:	f1b3 4f80 	cmp.w	r3, #1073741824	@ 0x40000000
 8002408:	d027      	beq.n	800245a <TIM_Base_SetConfig+0xb2>
 800240a:	687b      	ldr	r3, [r7, #4]
 800240c:	4a32      	ldr	r2, [pc, #200]	@ (80024d8 <TIM_Base_SetConfig+0x130>)
 800240e:	4293      	cmp	r3, r2
 8002410:	d023      	beq.n	800245a <TIM_Base_SetConfig+0xb2>
 8002412:	687b      	ldr	r3, [r7, #4]
 8002414:	4a31      	ldr	r2, [pc, #196]	@ (80024dc <TIM_Base_SetConfig+0x134>)
 8002416:	4293      	cmp	r3, r2
 8002418:	d01f      	beq.n	800245a <TIM_Base_SetConfig+0xb2>
 800241a:	687b      	ldr	r3, [r7, #4]
 800241c:	4a30      	ldr	r2, [pc, #192]	@ (80024e0 <TIM_Base_SetConfig+0x138>)
 800241e:	4293      	cmp	r3, r2
 8002420:	d01b      	beq.n	800245a <TIM_Base_SetConfig+0xb2>
 8002422:	687b      	ldr	r3, [r7, #4]
 8002424:	4a2f      	ldr	r2, [pc, #188]	@ (80024e4 <TIM_Base_SetConfig+0x13c>)
 8002426:	4293      	cmp	r3, r2
 8002428:	d017      	beq.n	800245a <TIM_Base_SetConfig+0xb2>
 800242a:	687b      	ldr	r3, [r7, #4]
 800242c:	4a2e      	ldr	r2, [pc, #184]	@ (80024e8 <TIM_Base_SetConfig+0x140>)
 800242e:	4293      	cmp	r3, r2
 8002430:	d013      	beq.n	800245a <TIM_Base_SetConfig+0xb2>
 8002432:	687b      	ldr	r3, [r7, #4]
 8002434:	4a2d      	ldr	r2, [pc, #180]	@ (80024ec <TIM_Base_SetConfig+0x144>)
 8002436:	4293      	cmp	r3, r2
 8002438:	d00f      	beq.n	800245a <TIM_Base_SetConfig+0xb2>
 800243a:	687b      	ldr	r3, [r7, #4]
 800243c:	4a2c      	ldr	r2, [pc, #176]	@ (80024f0 <TIM_Base_SetConfig+0x148>)
 800243e:	4293      	cmp	r3, r2
 8002440:	d00b      	beq.n	800245a <TIM_Base_SetConfig+0xb2>
 8002442:	687b      	ldr	r3, [r7, #4]
 8002444:	4a2b      	ldr	r2, [pc, #172]	@ (80024f4 <TIM_Base_SetConfig+0x14c>)
 8002446:	4293      	cmp	r3, r2
 8002448:	d007      	beq.n	800245a <TIM_Base_SetConfig+0xb2>
 800244a:	687b      	ldr	r3, [r7, #4]
 800244c:	4a2a      	ldr	r2, [pc, #168]	@ (80024f8 <TIM_Base_SetConfig+0x150>)
 800244e:	4293      	cmp	r3, r2
 8002450:	d003      	beq.n	800245a <TIM_Base_SetConfig+0xb2>
 8002452:	687b      	ldr	r3, [r7, #4]
 8002454:	4a29      	ldr	r2, [pc, #164]	@ (80024fc <TIM_Base_SetConfig+0x154>)
 8002456:	4293      	cmp	r3, r2
 8002458:	d108      	bne.n	800246c <TIM_Base_SetConfig+0xc4>
  {
    /* Set the clock division */
    tmpcr1 &= ~TIM_CR1_CKD;
 800245a:	68fb      	ldr	r3, [r7, #12]
 800245c:	f423 7340 	bic.w	r3, r3, #768	@ 0x300
 8002460:	60fb      	str	r3, [r7, #12]
    tmpcr1 |= (uint32_t)Structure->ClockDivision;
 8002462:	683b      	ldr	r3, [r7, #0]
 8002464:	68db      	ldr	r3, [r3, #12]
 8002466:	68fa      	ldr	r2, [r7, #12]
 8002468:	4313      	orrs	r3, r2
 800246a:	60fb      	str	r3, [r7, #12]
  }

  /* Set the auto-reload preload */
  MODIFY_REG(tmpcr1, TIM_CR1_ARPE, Structure->AutoReloadPreload);
 800246c:	68fb      	ldr	r3, [r7, #12]
 800246e:	f023 0280 	bic.w	r2, r3, #128	@ 0x80
 8002472:	683b      	ldr	r3, [r7, #0]
 8002474:	695b      	ldr	r3, [r3, #20]
 8002476:	4313      	orrs	r3, r2
 8002478:	60fb      	str	r3, [r7, #12]

  TIMx->CR1 = tmpcr1;
 800247a:	687b      	ldr	r3, [r7, #4]
 800247c:	68fa      	ldr	r2, [r7, #12]
 800247e:	601a      	str	r2, [r3, #0]

  /* Set the Autoreload value */
  TIMx->ARR = (uint32_t)Structure->Period ;
 8002480:	683b      	ldr	r3, [r7, #0]
 8002482:	689a      	ldr	r2, [r3, #8]
 8002484:	687b      	ldr	r3, [r7, #4]
 8002486:	62da      	str	r2, [r3, #44]	@ 0x2c

  /* Set the Prescaler value */
  TIMx->PSC = Structure->Prescaler;
 8002488:	683b      	ldr	r3, [r7, #0]
 800248a:	681a      	ldr	r2, [r3, #0]
 800248c:	687b      	ldr	r3, [r7, #4]
 800248e:	629a      	str	r2, [r3, #40]	@ 0x28

  if (IS_TIM_REPETITION_COUNTER_INSTANCE(TIMx))
 8002490:	687b      	ldr	r3, [r7, #4]
 8002492:	4a10      	ldr	r2, [pc, #64]	@ (80024d4 <TIM_Base_SetConfig+0x12c>)
 8002494:	4293      	cmp	r3, r2
 8002496:	d003      	beq.n	80024a0 <TIM_Base_SetConfig+0xf8>
 8002498:	687b      	ldr	r3, [r7, #4]
 800249a:	4a12      	ldr	r2, [pc, #72]	@ (80024e4 <TIM_Base_SetConfig+0x13c>)
 800249c:	4293      	cmp	r3, r2
 800249e:	d103      	bne.n	80024a8 <TIM_Base_SetConfig+0x100>
  {
    /* Set the Repetition Counter value */
    TIMx->RCR = Structure->RepetitionCounter;
 80024a0:	683b      	ldr	r3, [r7, #0]
 80024a2:	691a      	ldr	r2, [r3, #16]
 80024a4:	687b      	ldr	r3, [r7, #4]
 80024a6:	631a      	str	r2, [r3, #48]	@ 0x30
  }

  /* Generate an update event to reload the Prescaler
     and the repetition counter (only for advanced timer) value immediately */
  TIMx->EGR = TIM_EGR_UG;
 80024a8:	687b      	ldr	r3, [r7, #4]
 80024aa:	2201      	movs	r2, #1
 80024ac:	615a      	str	r2, [r3, #20]

  /* Check if the update flag is set after the Update Generation, if so clear the UIF flag */
  if (HAL_IS_BIT_SET(TIMx->SR, TIM_FLAG_UPDATE))
 80024ae:	687b      	ldr	r3, [r7, #4]
 80024b0:	691b      	ldr	r3, [r3, #16]
 80024b2:	f003 0301 	and.w	r3, r3, #1
 80024b6:	2b01      	cmp	r3, #1
 80024b8:	d105      	bne.n	80024c6 <TIM_Base_SetConfig+0x11e>
  {
    /* Clear the update flag */
    CLEAR_BIT(TIMx->SR, TIM_FLAG_UPDATE);
 80024ba:	687b      	ldr	r3, [r7, #4]
 80024bc:	691b      	ldr	r3, [r3, #16]
 80024be:	f023 0201 	bic.w	r2, r3, #1
 80024c2:	687b      	ldr	r3, [r7, #4]
 80024c4:	611a      	str	r2, [r3, #16]
  }
}
 80024c6:	bf00      	nop
 80024c8:	3714      	adds	r7, #20
 80024ca:	46bd      	mov	sp, r7
 80024cc:	f85d 7b04 	ldr.w	r7, [sp], #4
 80024d0:	4770      	bx	lr
 80024d2:	bf00      	nop
 80024d4:	40010000 	.word	0x40010000
 80024d8:	40000400 	.word	0x40000400
 80024dc:	40000800 	.word	0x40000800
 80024e0:	40000c00 	.word	0x40000c00
 80024e4:	40010400 	.word	0x40010400
 80024e8:	40014000 	.word	0x40014000
 80024ec:	40014400 	.word	0x40014400
 80024f0:	40014800 	.word	0x40014800
 80024f4:	40001800 	.word	0x40001800
 80024f8:	40001c00 	.word	0x40001c00
 80024fc:	40002000 	.word	0x40002000

08002500 <TIM_OC1_SetConfig>:
  * @param  TIMx to select the TIM peripheral
  * @param  OC_Config The output configuration structure
  * @retval None
  */
static void TIM_OC1_SetConfig(TIM_TypeDef *TIMx, const TIM_OC_InitTypeDef *OC_Config)
{
 8002500:	b480      	push	{r7}
 8002502:	b087      	sub	sp, #28
 8002504:	af00      	add	r7, sp, #0
 8002506:	6078      	str	r0, [r7, #4]
 8002508:	6039      	str	r1, [r7, #0]
  uint32_t tmpccmrx;
  uint32_t tmpccer;
  uint32_t tmpcr2;

  /* Get the TIMx CCER register value */
  tmpccer = TIMx->CCER;
 800250a:	687b      	ldr	r3, [r7, #4]
 800250c:	6a1b      	ldr	r3, [r3, #32]
 800250e:	617b      	str	r3, [r7, #20]

  /* Disable the Channel 1: Reset the CC1E Bit */
  TIMx->CCER &= ~TIM_CCER_CC1E;
 8002510:	687b      	ldr	r3, [r7, #4]
 8002512:	6a1b      	ldr	r3, [r3, #32]
 8002514:	f023 0201 	bic.w	r2, r3, #1
 8002518:	687b      	ldr	r3, [r7, #4]
 800251a:	621a      	str	r2, [r3, #32]

  /* Get the TIMx CR2 register value */
  tmpcr2 =  TIMx->CR2;
 800251c:	687b      	ldr	r3, [r7, #4]
 800251e:	685b      	ldr	r3, [r3, #4]
 8002520:	613b      	str	r3, [r7, #16]

  /* Get the TIMx CCMR1 register value */
  tmpccmrx = TIMx->CCMR1;
 8002522:	687b      	ldr	r3, [r7, #4]
 8002524:	699b      	ldr	r3, [r3, #24]
 8002526:	60fb      	str	r3, [r7, #12]

  /* Reset the Output Compare Mode Bits */
  tmpccmrx &= ~TIM_CCMR1_OC1M;
 8002528:	68fb      	ldr	r3, [r7, #12]
 800252a:	f023 0370 	bic.w	r3, r3, #112	@ 0x70
 800252e:	60fb      	str	r3, [r7, #12]
  tmpccmrx &= ~TIM_CCMR1_CC1S;
 8002530:	68fb      	ldr	r3, [r7, #12]
 8002532:	f023 0303 	bic.w	r3, r3, #3
 8002536:	60fb      	str	r3, [r7, #12]
  /* Select the Output Compare Mode */
  tmpccmrx |= OC_Config->OCMode;
 8002538:	683b      	ldr	r3, [r7, #0]
 800253a:	681b      	ldr	r3, [r3, #0]
 800253c:	68fa      	ldr	r2, [r7, #12]
 800253e:	4313      	orrs	r3, r2
 8002540:	60fb      	str	r3, [r7, #12]

  /* Reset the Output Polarity level */
  tmpccer &= ~TIM_CCER_CC1P;
 8002542:	697b      	ldr	r3, [r7, #20]
 8002544:	f023 0302 	bic.w	r3, r3, #2
 8002548:	617b      	str	r3, [r7, #20]
  /* Set the Output Compare Polarity */
  tmpccer |= OC_Config->OCPolarity;
 800254a:	683b      	ldr	r3, [r7, #0]
 800254c:	689b      	ldr	r3, [r3, #8]
 800254e:	697a      	ldr	r2, [r7, #20]
 8002550:	4313      	orrs	r3, r2
 8002552:	617b      	str	r3, [r7, #20]

  if (IS_TIM_CCXN_INSTANCE(TIMx, TIM_CHANNEL_1))
 8002554:	687b      	ldr	r3, [r7, #4]
 8002556:	4a20      	ldr	r2, [pc, #128]	@ (80025d8 <TIM_OC1_SetConfig+0xd8>)
 8002558:	4293      	cmp	r3, r2
 800255a:	d003      	beq.n	8002564 <TIM_OC1_SetConfig+0x64>
 800255c:	687b      	ldr	r3, [r7, #4]
 800255e:	4a1f      	ldr	r2, [pc, #124]	@ (80025dc <TIM_OC1_SetConfig+0xdc>)
 8002560:	4293      	cmp	r3, r2
 8002562:	d10c      	bne.n	800257e <TIM_OC1_SetConfig+0x7e>
  {
    /* Check parameters */
    assert_param(IS_TIM_OCN_POLARITY(OC_Config->OCNPolarity));

    /* Reset the Output N Polarity level */
    tmpccer &= ~TIM_CCER_CC1NP;
 8002564:	697b      	ldr	r3, [r7, #20]
 8002566:	f023 0308 	bic.w	r3, r3, #8
 800256a:	617b      	str	r3, [r7, #20]
    /* Set the Output N Polarity */
    tmpccer |= OC_Config->OCNPolarity;
 800256c:	683b      	ldr	r3, [r7, #0]
 800256e:	68db      	ldr	r3, [r3, #12]
 8002570:	697a      	ldr	r2, [r7, #20]
 8002572:	4313      	orrs	r3, r2
 8002574:	617b      	str	r3, [r7, #20]
    /* Reset the Output N State */
    tmpccer &= ~TIM_CCER_CC1NE;
 8002576:	697b      	ldr	r3, [r7, #20]
 8002578:	f023 0304 	bic.w	r3, r3, #4
 800257c:	617b      	str	r3, [r7, #20]
  }

  if (IS_TIM_BREAK_INSTANCE(TIMx))
 800257e:	687b      	ldr	r3, [r7, #4]
 8002580:	4a15      	ldr	r2, [pc, #84]	@ (80025d8 <TIM_OC1_SetConfig+0xd8>)
 8002582:	4293      	cmp	r3, r2
 8002584:	d003      	beq.n	800258e <TIM_OC1_SetConfig+0x8e>
 8002586:	687b      	ldr	r3, [r7, #4]
 8002588:	4a14      	ldr	r2, [pc, #80]	@ (80025dc <TIM_OC1_SetConfig+0xdc>)
 800258a:	4293      	cmp	r3, r2
 800258c:	d111      	bne.n	80025b2 <TIM_OC1_SetConfig+0xb2>
    /* Check parameters */
    assert_param(IS_TIM_OCNIDLE_STATE(OC_Config->OCNIdleState));
    assert_param(IS_TIM_OCIDLE_STATE(OC_Config->OCIdleState));

    /* Reset the Output Compare and Output Compare N IDLE State */
    tmpcr2 &= ~TIM_CR2_OIS1;
 800258e:	693b      	ldr	r3, [r7, #16]
 8002590:	f423 7380 	bic.w	r3, r3, #256	@ 0x100
 8002594:	613b      	str	r3, [r7, #16]
    tmpcr2 &= ~TIM_CR2_OIS1N;
 8002596:	693b      	ldr	r3, [r7, #16]
 8002598:	f423 7300 	bic.w	r3, r3, #512	@ 0x200
 800259c:	613b      	str	r3, [r7, #16]
    /* Set the Output Idle state */
    tmpcr2 |= OC_Config->OCIdleState;
 800259e:	683b      	ldr	r3, [r7, #0]
 80025a0:	695b      	ldr	r3, [r3, #20]
 80025a2:	693a      	ldr	r2, [r7, #16]
 80025a4:	4313      	orrs	r3, r2
 80025a6:	613b      	str	r3, [r7, #16]
    /* Set the Output N Idle state */
    tmpcr2 |= OC_Config->OCNIdleState;
 80025a8:	683b      	ldr	r3, [r7, #0]
 80025aa:	699b      	ldr	r3, [r3, #24]
 80025ac:	693a      	ldr	r2, [r7, #16]
 80025ae:	4313      	orrs	r3, r2
 80025b0:	613b      	str	r3, [r7, #16]
  }

  /* Write to TIMx CR2 */
  TIMx->CR2 = tmpcr2;
 80025b2:	687b      	ldr	r3, [r7, #4]
 80025b4:	693a      	ldr	r2, [r7, #16]
 80025b6:	605a      	str	r2, [r3, #4]

  /* Write to TIMx CCMR1 */
  TIMx->CCMR1 = tmpccmrx;
 80025b8:	687b      	ldr	r3, [r7, #4]
 80025ba:	68fa      	ldr	r2, [r7, #12]
 80025bc:	619a      	str	r2, [r3, #24]

  /* Set the Capture Compare Register value */
  TIMx->CCR1 = OC_Config->Pulse;
 80025be:	683b      	ldr	r3, [r7, #0]
 80025c0:	685a      	ldr	r2, [r3, #4]
 80025c2:	687b      	ldr	r3, [r7, #4]
 80025c4:	635a      	str	r2, [r3, #52]	@ 0x34

  /* Write to TIMx CCER */
  TIMx->CCER = tmpccer;
 80025c6:	687b      	ldr	r3, [r7, #4]
 80025c8:	697a      	ldr	r2, [r7, #20]
 80025ca:	621a      	str	r2, [r3, #32]
}
 80025cc:	bf00      	nop
 80025ce:	371c      	adds	r7, #28
 80025d0:	46bd      	mov	sp, r7
 80025d2:	f85d 7b04 	ldr.w	r7, [sp], #4
 80025d6:	4770      	bx	lr
 80025d8:	40010000 	.word	0x40010000
 80025dc:	40010400 	.word	0x40010400

080025e0 <TIM_OC2_SetConfig>:
  * @param  TIMx to select the TIM peripheral
  * @param  OC_Config The output configuration structure
  * @retval None
  */
void TIM_OC2_SetConfig(TIM_TypeDef *TIMx, const TIM_OC_InitTypeDef *OC_Config)
{
 80025e0:	b480      	push	{r7}
 80025e2:	b087      	sub	sp, #28
 80025e4:	af00      	add	r7, sp, #0
 80025e6:	6078      	str	r0, [r7, #4]
 80025e8:	6039      	str	r1, [r7, #0]
  uint32_t tmpccmrx;
  uint32_t tmpccer;
  uint32_t tmpcr2;

  /* Get the TIMx CCER register value */
  tmpccer = TIMx->CCER;
 80025ea:	687b      	ldr	r3, [r7, #4]
 80025ec:	6a1b      	ldr	r3, [r3, #32]
 80025ee:	617b      	str	r3, [r7, #20]

  /* Disable the Channel 2: Reset the CC2E Bit */
  TIMx->CCER &= ~TIM_CCER_CC2E;
 80025f0:	687b      	ldr	r3, [r7, #4]
 80025f2:	6a1b      	ldr	r3, [r3, #32]
 80025f4:	f023 0210 	bic.w	r2, r3, #16
 80025f8:	687b      	ldr	r3, [r7, #4]
 80025fa:	621a      	str	r2, [r3, #32]

  /* Get the TIMx CR2 register value */
  tmpcr2 =  TIMx->CR2;
 80025fc:	687b      	ldr	r3, [r7, #4]
 80025fe:	685b      	ldr	r3, [r3, #4]
 8002600:	613b      	str	r3, [r7, #16]

  /* Get the TIMx CCMR1 register value */
  tmpccmrx = TIMx->CCMR1;
 8002602:	687b      	ldr	r3, [r7, #4]
 8002604:	699b      	ldr	r3, [r3, #24]
 8002606:	60fb      	str	r3, [r7, #12]

  /* Reset the Output Compare mode and Capture/Compare selection Bits */
  tmpccmrx &= ~TIM_CCMR1_OC2M;
 8002608:	68fb      	ldr	r3, [r7, #12]
 800260a:	f423 43e0 	bic.w	r3, r3, #28672	@ 0x7000
 800260e:	60fb      	str	r3, [r7, #12]
  tmpccmrx &= ~TIM_CCMR1_CC2S;
 8002610:	68fb      	ldr	r3, [r7, #12]
 8002612:	f423 7340 	bic.w	r3, r3, #768	@ 0x300
 8002616:	60fb      	str	r3, [r7, #12]

  /* Select the Output Compare Mode */
  tmpccmrx |= (OC_Config->OCMode << 8U);
 8002618:	683b      	ldr	r3, [r7, #0]
 800261a:	681b      	ldr	r3, [r3, #0]
 800261c:	021b      	lsls	r3, r3, #8
 800261e:	68fa      	ldr	r2, [r7, #12]
 8002620:	4313      	orrs	r3, r2
 8002622:	60fb      	str	r3, [r7, #12]

  /* Reset the Output Polarity level */
  tmpccer &= ~TIM_CCER_CC2P;
 8002624:	697b      	ldr	r3, [r7, #20]
 8002626:	f023 0320 	bic.w	r3, r3, #32
 800262a:	617b      	str	r3, [r7, #20]
  /* Set the Output Compare Polarity */
  tmpccer |= (OC_Config->OCPolarity << 4U);
 800262c:	683b      	ldr	r3, [r7, #0]
 800262e:	689b      	ldr	r3, [r3, #8]
 8002630:	011b      	lsls	r3, r3, #4
 8002632:	697a      	ldr	r2, [r7, #20]
 8002634:	4313      	orrs	r3, r2
 8002636:	617b      	str	r3, [r7, #20]

  if (IS_TIM_CCXN_INSTANCE(TIMx, TIM_CHANNEL_2))
 8002638:	687b      	ldr	r3, [r7, #4]
 800263a:	4a22      	ldr	r2, [pc, #136]	@ (80026c4 <TIM_OC2_SetConfig+0xe4>)
 800263c:	4293      	cmp	r3, r2
 800263e:	d003      	beq.n	8002648 <TIM_OC2_SetConfig+0x68>
 8002640:	687b      	ldr	r3, [r7, #4]
 8002642:	4a21      	ldr	r2, [pc, #132]	@ (80026c8 <TIM_OC2_SetConfig+0xe8>)
 8002644:	4293      	cmp	r3, r2
 8002646:	d10d      	bne.n	8002664 <TIM_OC2_SetConfig+0x84>
  {
    assert_param(IS_TIM_OCN_POLARITY(OC_Config->OCNPolarity));

    /* Reset the Output N Polarity level */
    tmpccer &= ~TIM_CCER_CC2NP;
 8002648:	697b      	ldr	r3, [r7, #20]
 800264a:	f023 0380 	bic.w	r3, r3, #128	@ 0x80
 800264e:	617b      	str	r3, [r7, #20]
    /* Set the Output N Polarity */
    tmpccer |= (OC_Config->OCNPolarity << 4U);
 8002650:	683b      	ldr	r3, [r7, #0]
 8002652:	68db      	ldr	r3, [r3, #12]
 8002654:	011b      	lsls	r3, r3, #4
 8002656:	697a      	ldr	r2, [r7, #20]
 8002658:	4313      	orrs	r3, r2
 800265a:	617b      	str	r3, [r7, #20]
    /* Reset the Output N State */
    tmpccer &= ~TIM_CCER_CC2NE;
 800265c:	697b      	ldr	r3, [r7, #20]
 800265e:	f023 0340 	bic.w	r3, r3, #64	@ 0x40
 8002662:	617b      	str	r3, [r7, #20]
  }

  if (IS_TIM_BREAK_INSTANCE(TIMx))
 8002664:	687b      	ldr	r3, [r7, #4]
 8002666:	4a17      	ldr	r2, [pc, #92]	@ (80026c4 <TIM_OC2_SetConfig+0xe4>)
 8002668:	4293      	cmp	r3, r2
 800266a:	d003      	beq.n	8002674 <TIM_OC2_SetConfig+0x94>
 800266c:	687b      	ldr	r3, [r7, #4]
 800266e:	4a16      	ldr	r2, [pc, #88]	@ (80026c8 <TIM_OC2_SetConfig+0xe8>)
 8002670:	4293      	cmp	r3, r2
 8002672:	d113      	bne.n	800269c <TIM_OC2_SetConfig+0xbc>
    /* Check parameters */
    assert_param(IS_TIM_OCNIDLE_STATE(OC_Config->OCNIdleState));
    assert_param(IS_TIM_OCIDLE_STATE(OC_Config->OCIdleState));

    /* Reset the Output Compare and Output Compare N IDLE State */
    tmpcr2 &= ~TIM_CR2_OIS2;
 8002674:	693b      	ldr	r3, [r7, #16]
 8002676:	f423 6380 	bic.w	r3, r3, #1024	@ 0x400
 800267a:	613b      	str	r3, [r7, #16]
    tmpcr2 &= ~TIM_CR2_OIS2N;
 800267c:	693b      	ldr	r3, [r7, #16]
 800267e:	f423 6300 	bic.w	r3, r3, #2048	@ 0x800
 8002682:	613b      	str	r3, [r7, #16]
    /* Set the Output Idle state */
    tmpcr2 |= (OC_Config->OCIdleState << 2U);
 8002684:	683b      	ldr	r3, [r7, #0]
 8002686:	695b      	ldr	r3, [r3, #20]
 8002688:	009b      	lsls	r3, r3, #2
 800268a:	693a      	ldr	r2, [r7, #16]
 800268c:	4313      	orrs	r3, r2
 800268e:	613b      	str	r3, [r7, #16]
    /* Set the Output N Idle state */
    tmpcr2 |= (OC_Config->OCNIdleState << 2U);
 8002690:	683b      	ldr	r3, [r7, #0]
 8002692:	699b      	ldr	r3, [r3, #24]
 8002694:	009b      	lsls	r3, r3, #2
 8002696:	693a      	ldr	r2, [r7, #16]
 8002698:	4313      	orrs	r3, r2
 800269a:	613b      	str	r3, [r7, #16]
  }

  /* Write to TIMx CR2 */
  TIMx->CR2 = tmpcr2;
 800269c:	687b      	ldr	r3, [r7, #4]
 800269e:	693a      	ldr	r2, [r7, #16]
 80026a0:	605a      	str	r2, [r3, #4]

  /* Write to TIMx CCMR1 */
  TIMx->CCMR1 = tmpccmrx;
 80026a2:	687b      	ldr	r3, [r7, #4]
 80026a4:	68fa      	ldr	r2, [r7, #12]
 80026a6:	619a      	str	r2, [r3, #24]

  /* Set the Capture Compare Register value */
  TIMx->CCR2 = OC_Config->Pulse;
 80026a8:	683b      	ldr	r3, [r7, #0]
 80026aa:	685a      	ldr	r2, [r3, #4]
 80026ac:	687b      	ldr	r3, [r7, #4]
 80026ae:	639a      	str	r2, [r3, #56]	@ 0x38

  /* Write to TIMx CCER */
  TIMx->CCER = tmpccer;
 80026b0:	687b      	ldr	r3, [r7, #4]
 80026b2:	697a      	ldr	r2, [r7, #20]
 80026b4:	621a      	str	r2, [r3, #32]
}
 80026b6:	bf00      	nop
 80026b8:	371c      	adds	r7, #28
 80026ba:	46bd      	mov	sp, r7
 80026bc:	f85d 7b04 	ldr.w	r7, [sp], #4
 80026c0:	4770      	bx	lr
 80026c2:	bf00      	nop
 80026c4:	40010000 	.word	0x40010000
 80026c8:	40010400 	.word	0x40010400

080026cc <TIM_OC3_SetConfig>:
  * @param  TIMx to select the TIM peripheral
  * @param  OC_Config The output configuration structure
  * @retval None
  */
static void TIM_OC3_SetConfig(TIM_TypeDef *TIMx, const TIM_OC_InitTypeDef *OC_Config)
{
 80026cc:	b480      	push	{r7}
 80026ce:	b087      	sub	sp, #28
 80026d0:	af00      	add	r7, sp, #0
 80026d2:	6078      	str	r0, [r7, #4]
 80026d4:	6039      	str	r1, [r7, #0]
  uint32_t tmpccmrx;
  uint32_t tmpccer;
  uint32_t tmpcr2;

  /* Get the TIMx CCER register value */
  tmpccer = TIMx->CCER;
 80026d6:	687b      	ldr	r3, [r7, #4]
 80026d8:	6a1b      	ldr	r3, [r3, #32]
 80026da:	617b      	str	r3, [r7, #20]

  /* Disable the Channel 3: Reset the CC2E Bit */
  TIMx->CCER &= ~TIM_CCER_CC3E;
 80026dc:	687b      	ldr	r3, [r7, #4]
 80026de:	6a1b      	ldr	r3, [r3, #32]
 80026e0:	f423 7280 	bic.w	r2, r3, #256	@ 0x100
 80026e4:	687b      	ldr	r3, [r7, #4]
 80026e6:	621a      	str	r2, [r3, #32]

  /* Get the TIMx CR2 register value */
  tmpcr2 =  TIMx->CR2;
 80026e8:	687b      	ldr	r3, [r7, #4]
 80026ea:	685b      	ldr	r3, [r3, #4]
 80026ec:	613b      	str	r3, [r7, #16]

  /* Get the TIMx CCMR2 register value */
  tmpccmrx = TIMx->CCMR2;
 80026ee:	687b      	ldr	r3, [r7, #4]
 80026f0:	69db      	ldr	r3, [r3, #28]
 80026f2:	60fb      	str	r3, [r7, #12]

  /* Reset the Output Compare mode and Capture/Compare selection Bits */
  tmpccmrx &= ~TIM_CCMR2_OC3M;
 80026f4:	68fb      	ldr	r3, [r7, #12]
 80026f6:	f023 0370 	bic.w	r3, r3, #112	@ 0x70
 80026fa:	60fb      	str	r3, [r7, #12]
  tmpccmrx &= ~TIM_CCMR2_CC3S;
 80026fc:	68fb      	ldr	r3, [r7, #12]
 80026fe:	f023 0303 	bic.w	r3, r3, #3
 8002702:	60fb      	str	r3, [r7, #12]
  /* Select the Output Compare Mode */
  tmpccmrx |= OC_Config->OCMode;
 8002704:	683b      	ldr	r3, [r7, #0]
 8002706:	681b      	ldr	r3, [r3, #0]
 8002708:	68fa      	ldr	r2, [r7, #12]
 800270a:	4313      	orrs	r3, r2
 800270c:	60fb      	str	r3, [r7, #12]

  /* Reset the Output Polarity level */
  tmpccer &= ~TIM_CCER_CC3P;
 800270e:	697b      	ldr	r3, [r7, #20]
 8002710:	f423 7300 	bic.w	r3, r3, #512	@ 0x200
 8002714:	617b      	str	r3, [r7, #20]
  /* Set the Output Compare Polarity */
  tmpccer |= (OC_Config->OCPolarity << 8U);
 8002716:	683b      	ldr	r3, [r7, #0]
 8002718:	689b      	ldr	r3, [r3, #8]
 800271a:	021b      	lsls	r3, r3, #8
 800271c:	697a      	ldr	r2, [r7, #20]
 800271e:	4313      	orrs	r3, r2
 8002720:	617b      	str	r3, [r7, #20]

  if (IS_TIM_CCXN_INSTANCE(TIMx, TIM_CHANNEL_3))
 8002722:	687b      	ldr	r3, [r7, #4]
 8002724:	4a21      	ldr	r2, [pc, #132]	@ (80027ac <TIM_OC3_SetConfig+0xe0>)
 8002726:	4293      	cmp	r3, r2
 8002728:	d003      	beq.n	8002732 <TIM_OC3_SetConfig+0x66>
 800272a:	687b      	ldr	r3, [r7, #4]
 800272c:	4a20      	ldr	r2, [pc, #128]	@ (80027b0 <TIM_OC3_SetConfig+0xe4>)
 800272e:	4293      	cmp	r3, r2
 8002730:	d10d      	bne.n	800274e <TIM_OC3_SetConfig+0x82>
  {
    assert_param(IS_TIM_OCN_POLARITY(OC_Config->OCNPolarity));

    /* Reset the Output N Polarity level */
    tmpccer &= ~TIM_CCER_CC3NP;
 8002732:	697b      	ldr	r3, [r7, #20]
 8002734:	f423 6300 	bic.w	r3, r3, #2048	@ 0x800
 8002738:	617b      	str	r3, [r7, #20]
    /* Set the Output N Polarity */
    tmpccer |= (OC_Config->OCNPolarity << 8U);
 800273a:	683b      	ldr	r3, [r7, #0]
 800273c:	68db      	ldr	r3, [r3, #12]
 800273e:	021b      	lsls	r3, r3, #8
 8002740:	697a      	ldr	r2, [r7, #20]
 8002742:	4313      	orrs	r3, r2
 8002744:	617b      	str	r3, [r7, #20]
    /* Reset the Output N State */
    tmpccer &= ~TIM_CCER_CC3NE;
 8002746:	697b      	ldr	r3, [r7, #20]
 8002748:	f423 6380 	bic.w	r3, r3, #1024	@ 0x400
 800274c:	617b      	str	r3, [r7, #20]
  }

  if (IS_TIM_BREAK_INSTANCE(TIMx))
 800274e:	687b      	ldr	r3, [r7, #4]
 8002750:	4a16      	ldr	r2, [pc, #88]	@ (80027ac <TIM_OC3_SetConfig+0xe0>)
 8002752:	4293      	cmp	r3, r2
 8002754:	d003      	beq.n	800275e <TIM_OC3_SetConfig+0x92>
 8002756:	687b      	ldr	r3, [r7, #4]
 8002758:	4a15      	ldr	r2, [pc, #84]	@ (80027b0 <TIM_OC3_SetConfig+0xe4>)
 800275a:	4293      	cmp	r3, r2
 800275c:	d113      	bne.n	8002786 <TIM_OC3_SetConfig+0xba>
    /* Check parameters */
    assert_param(IS_TIM_OCNIDLE_STATE(OC_Config->OCNIdleState));
    assert_param(IS_TIM_OCIDLE_STATE(OC_Config->OCIdleState));

    /* Reset the Output Compare and Output Compare N IDLE State */
    tmpcr2 &= ~TIM_CR2_OIS3;
 800275e:	693b      	ldr	r3, [r7, #16]
 8002760:	f423 5380 	bic.w	r3, r3, #4096	@ 0x1000
 8002764:	613b      	str	r3, [r7, #16]
    tmpcr2 &= ~TIM_CR2_OIS3N;
 8002766:	693b      	ldr	r3, [r7, #16]
 8002768:	f423 5300 	bic.w	r3, r3, #8192	@ 0x2000
 800276c:	613b      	str	r3, [r7, #16]
    /* Set the Output Idle state */
    tmpcr2 |= (OC_Config->OCIdleState << 4U);
 800276e:	683b      	ldr	r3, [r7, #0]
 8002770:	695b      	ldr	r3, [r3, #20]
 8002772:	011b      	lsls	r3, r3, #4
 8002774:	693a      	ldr	r2, [r7, #16]
 8002776:	4313      	orrs	r3, r2
 8002778:	613b      	str	r3, [r7, #16]
    /* Set the Output N Idle state */
    tmpcr2 |= (OC_Config->OCNIdleState << 4U);
 800277a:	683b      	ldr	r3, [r7, #0]
 800277c:	699b      	ldr	r3, [r3, #24]
 800277e:	011b      	lsls	r3, r3, #4
 8002780:	693a      	ldr	r2, [r7, #16]
 8002782:	4313      	orrs	r3, r2
 8002784:	613b      	str	r3, [r7, #16]
  }

  /* Write to TIMx CR2 */
  TIMx->CR2 = tmpcr2;
 8002786:	687b      	ldr	r3, [r7, #4]
 8002788:	693a      	ldr	r2, [r7, #16]
 800278a:	605a      	str	r2, [r3, #4]

  /* Write to TIMx CCMR2 */
  TIMx->CCMR2 = tmpccmrx;
 800278c:	687b      	ldr	r3, [r7, #4]
 800278e:	68fa      	ldr	r2, [r7, #12]
 8002790:	61da      	str	r2, [r3, #28]

  /* Set the Capture Compare Register value */
  TIMx->CCR3 = OC_Config->Pulse;
 8002792:	683b      	ldr	r3, [r7, #0]
 8002794:	685a      	ldr	r2, [r3, #4]
 8002796:	687b      	ldr	r3, [r7, #4]
 8002798:	63da      	str	r2, [r3, #60]	@ 0x3c

  /* Write to TIMx CCER */
  TIMx->CCER = tmpccer;
 800279a:	687b      	ldr	r3, [r7, #4]
 800279c:	697a      	ldr	r2, [r7, #20]
 800279e:	621a      	str	r2, [r3, #32]
}
 80027a0:	bf00      	nop
 80027a2:	371c      	adds	r7, #28
 80027a4:	46bd      	mov	sp, r7
 80027a6:	f85d 7b04 	ldr.w	r7, [sp], #4
 80027aa:	4770      	bx	lr
 80027ac:	40010000 	.word	0x40010000
 80027b0:	40010400 	.word	0x40010400

080027b4 <TIM_OC4_SetConfig>:
  * @param  TIMx to select the TIM peripheral
  * @param  OC_Config The output configuration structure
  * @retval None
  */
static void TIM_OC4_SetConfig(TIM_TypeDef *TIMx, const TIM_OC_InitTypeDef *OC_Config)
{
 80027b4:	b480      	push	{r7}
 80027b6:	b087      	sub	sp, #28
 80027b8:	af00      	add	r7, sp, #0
 80027ba:	6078      	str	r0, [r7, #4]
 80027bc:	6039      	str	r1, [r7, #0]
  uint32_t tmpccmrx;
  uint32_t tmpccer;
  uint32_t tmpcr2;

  /* Get the TIMx CCER register value */
  tmpccer = TIMx->CCER;
 80027be:	687b      	ldr	r3, [r7, #4]
 80027c0:	6a1b      	ldr	r3, [r3, #32]
 80027c2:	613b      	str	r3, [r7, #16]

  /* Disable the Channel 4: Reset the CC4E Bit */
  TIMx->CCER &= ~TIM_CCER_CC4E;
 80027c4:	687b      	ldr	r3, [r7, #4]
 80027c6:	6a1b      	ldr	r3, [r3, #32]
 80027c8:	f423 5280 	bic.w	r2, r3, #4096	@ 0x1000
 80027cc:	687b      	ldr	r3, [r7, #4]
 80027ce:	621a      	str	r2, [r3, #32]

  /* Get the TIMx CR2 register value */
  tmpcr2 =  TIMx->CR2;
 80027d0:	687b      	ldr	r3, [r7, #4]
 80027d2:	685b      	ldr	r3, [r3, #4]
 80027d4:	617b      	str	r3, [r7, #20]

  /* Get the TIMx CCMR2 register value */
  tmpccmrx = TIMx->CCMR2;
 80027d6:	687b      	ldr	r3, [r7, #4]
 80027d8:	69db      	ldr	r3, [r3, #28]
 80027da:	60fb      	str	r3, [r7, #12]

  /* Reset the Output Compare mode and Capture/Compare selection Bits */
  tmpccmrx &= ~TIM_CCMR2_OC4M;
 80027dc:	68fb      	ldr	r3, [r7, #12]
 80027de:	f423 43e0 	bic.w	r3, r3, #28672	@ 0x7000
 80027e2:	60fb      	str	r3, [r7, #12]
  tmpccmrx &= ~TIM_CCMR2_CC4S;
 80027e4:	68fb      	ldr	r3, [r7, #12]
 80027e6:	f423 7340 	bic.w	r3, r3, #768	@ 0x300
 80027ea:	60fb      	str	r3, [r7, #12]

  /* Select the Output Compare Mode */
  tmpccmrx |= (OC_Config->OCMode << 8U);
 80027ec:	683b      	ldr	r3, [r7, #0]
 80027ee:	681b      	ldr	r3, [r3, #0]
 80027f0:	021b      	lsls	r3, r3, #8
 80027f2:	68fa      	ldr	r2, [r7, #12]
 80027f4:	4313      	orrs	r3, r2
 80027f6:	60fb      	str	r3, [r7, #12]

  /* Reset the Output Polarity level */
  tmpccer &= ~TIM_CCER_CC4P;
 80027f8:	693b      	ldr	r3, [r7, #16]
 80027fa:	f423 5300 	bic.w	r3, r3, #8192	@ 0x2000
 80027fe:	613b      	str	r3, [r7, #16]
  /* Set the Output Compare Polarity */
  tmpccer |= (OC_Config->OCPolarity << 12U);
 8002800:	683b      	ldr	r3, [r7, #0]
 8002802:	689b      	ldr	r3, [r3, #8]
 8002804:	031b      	lsls	r3, r3, #12
 8002806:	693a      	ldr	r2, [r7, #16]
 8002808:	4313      	orrs	r3, r2
 800280a:	613b      	str	r3, [r7, #16]

  if (IS_TIM_BREAK_INSTANCE(TIMx))
 800280c:	687b      	ldr	r3, [r7, #4]
 800280e:	4a12      	ldr	r2, [pc, #72]	@ (8002858 <TIM_OC4_SetConfig+0xa4>)
 8002810:	4293      	cmp	r3, r2
 8002812:	d003      	beq.n	800281c <TIM_OC4_SetConfig+0x68>
 8002814:	687b      	ldr	r3, [r7, #4]
 8002816:	4a11      	ldr	r2, [pc, #68]	@ (800285c <TIM_OC4_SetConfig+0xa8>)
 8002818:	4293      	cmp	r3, r2
 800281a:	d109      	bne.n	8002830 <TIM_OC4_SetConfig+0x7c>
  {
    /* Check parameters */
    assert_param(IS_TIM_OCIDLE_STATE(OC_Config->OCIdleState));

    /* Reset the Output Compare IDLE State */
    tmpcr2 &= ~TIM_CR2_OIS4;
 800281c:	697b      	ldr	r3, [r7, #20]
 800281e:	f423 4380 	bic.w	r3, r3, #16384	@ 0x4000
 8002822:	617b      	str	r3, [r7, #20]

    /* Set the Output Idle state */
    tmpcr2 |= (OC_Config->OCIdleState << 6U);
 8002824:	683b      	ldr	r3, [r7, #0]
 8002826:	695b      	ldr	r3, [r3, #20]
 8002828:	019b      	lsls	r3, r3, #6
 800282a:	697a      	ldr	r2, [r7, #20]
 800282c:	4313      	orrs	r3, r2
 800282e:	617b      	str	r3, [r7, #20]
  }

  /* Write to TIMx CR2 */
  TIMx->CR2 = tmpcr2;
 8002830:	687b      	ldr	r3, [r7, #4]
 8002832:	697a      	ldr	r2, [r7, #20]
 8002834:	605a      	str	r2, [r3, #4]

  /* Write to TIMx CCMR2 */
  TIMx->CCMR2 = tmpccmrx;
 8002836:	687b      	ldr	r3, [r7, #4]
 8002838:	68fa      	ldr	r2, [r7, #12]
 800283a:	61da      	str	r2, [r3, #28]

  /* Set the Capture Compare Register value */
  TIMx->CCR4 = OC_Config->Pulse;
 800283c:	683b      	ldr	r3, [r7, #0]
 800283e:	685a      	ldr	r2, [r3, #4]
 8002840:	687b      	ldr	r3, [r7, #4]
 8002842:	641a      	str	r2, [r3, #64]	@ 0x40

  /* Write to TIMx CCER */
  TIMx->CCER = tmpccer;
 8002844:	687b      	ldr	r3, [r7, #4]
 8002846:	693a      	ldr	r2, [r7, #16]
 8002848:	621a      	str	r2, [r3, #32]
}
 800284a:	bf00      	nop
 800284c:	371c      	adds	r7, #28
 800284e:	46bd      	mov	sp, r7
 8002850:	f85d 7b04 	ldr.w	r7, [sp], #4
 8002854:	4770      	bx	lr
 8002856:	bf00      	nop
 8002858:	40010000 	.word	0x40010000
 800285c:	40010400 	.word	0x40010400

08002860 <TIM_TI1_ConfigInputStage>:
  * @param  TIM_ICFilter Specifies the Input Capture Filter.
  *          This parameter must be a value between 0x00 and 0x0F.
  * @retval None
  */
static void TIM_TI1_ConfigInputStage(TIM_TypeDef *TIMx, uint32_t TIM_ICPolarity, uint32_t TIM_ICFilter)
{
 8002860:	b480      	push	{r7}
 8002862:	b087      	sub	sp, #28
 8002864:	af00      	add	r7, sp, #0
 8002866:	60f8      	str	r0, [r7, #12]
 8002868:	60b9      	str	r1, [r7, #8]
 800286a:	607a      	str	r2, [r7, #4]
  uint32_t tmpccmr1;
  uint32_t tmpccer;

  /* Disable the Channel 1: Reset the CC1E Bit */
  tmpccer = TIMx->CCER;
 800286c:	68fb      	ldr	r3, [r7, #12]
 800286e:	6a1b      	ldr	r3, [r3, #32]
 8002870:	617b      	str	r3, [r7, #20]
  TIMx->CCER &= ~TIM_CCER_CC1E;
 8002872:	68fb      	ldr	r3, [r7, #12]
 8002874:	6a1b      	ldr	r3, [r3, #32]
 8002876:	f023 0201 	bic.w	r2, r3, #1
 800287a:	68fb      	ldr	r3, [r7, #12]
 800287c:	621a      	str	r2, [r3, #32]
  tmpccmr1 = TIMx->CCMR1;
 800287e:	68fb      	ldr	r3, [r7, #12]
 8002880:	699b      	ldr	r3, [r3, #24]
 8002882:	613b      	str	r3, [r7, #16]

  /* Set the filter */
  tmpccmr1 &= ~TIM_CCMR1_IC1F;
 8002884:	693b      	ldr	r3, [r7, #16]
 8002886:	f023 03f0 	bic.w	r3, r3, #240	@ 0xf0
 800288a:	613b      	str	r3, [r7, #16]
  tmpccmr1 |= (TIM_ICFilter << 4U);
 800288c:	687b      	ldr	r3, [r7, #4]
 800288e:	011b      	lsls	r3, r3, #4
 8002890:	693a      	ldr	r2, [r7, #16]
 8002892:	4313      	orrs	r3, r2
 8002894:	613b      	str	r3, [r7, #16]

  /* Select the Polarity and set the CC1E Bit */
  tmpccer &= ~(TIM_CCER_CC1P | TIM_CCER_CC1NP);
 8002896:	697b      	ldr	r3, [r7, #20]
 8002898:	f023 030a 	bic.w	r3, r3, #10
 800289c:	617b      	str	r3, [r7, #20]
  tmpccer |= TIM_ICPolarity;
 800289e:	697a      	ldr	r2, [r7, #20]
 80028a0:	68bb      	ldr	r3, [r7, #8]
 80028a2:	4313      	orrs	r3, r2
 80028a4:	617b      	str	r3, [r7, #20]

  /* Write to TIMx CCMR1 and CCER registers */
  TIMx->CCMR1 = tmpccmr1;
 80028a6:	68fb      	ldr	r3, [r7, #12]
 80028a8:	693a      	ldr	r2, [r7, #16]
 80028aa:	619a      	str	r2, [r3, #24]
  TIMx->CCER = tmpccer;
 80028ac:	68fb      	ldr	r3, [r7, #12]
 80028ae:	697a      	ldr	r2, [r7, #20]
 80028b0:	621a      	str	r2, [r3, #32]
}
 80028b2:	bf00      	nop
 80028b4:	371c      	adds	r7, #28
 80028b6:	46bd      	mov	sp, r7
 80028b8:	f85d 7b04 	ldr.w	r7, [sp], #4
 80028bc:	4770      	bx	lr

080028be <TIM_TI2_ConfigInputStage>:
  * @param  TIM_ICFilter Specifies the Input Capture Filter.
  *          This parameter must be a value between 0x00 and 0x0F.
  * @retval None
  */
static void TIM_TI2_ConfigInputStage(TIM_TypeDef *TIMx, uint32_t TIM_ICPolarity, uint32_t TIM_ICFilter)
{
 80028be:	b480      	push	{r7}
 80028c0:	b087      	sub	sp, #28
 80028c2:	af00      	add	r7, sp, #0
 80028c4:	60f8      	str	r0, [r7, #12]
 80028c6:	60b9      	str	r1, [r7, #8]
 80028c8:	607a      	str	r2, [r7, #4]
  uint32_t tmpccmr1;
  uint32_t tmpccer;

  /* Disable the Channel 2: Reset the CC2E Bit */
  tmpccer = TIMx->CCER;
 80028ca:	68fb      	ldr	r3, [r7, #12]
 80028cc:	6a1b      	ldr	r3, [r3, #32]
 80028ce:	617b      	str	r3, [r7, #20]
  TIMx->CCER &= ~TIM_CCER_CC2E;
 80028d0:	68fb      	ldr	r3, [r7, #12]
 80028d2:	6a1b      	ldr	r3, [r3, #32]
 80028d4:	f023 0210 	bic.w	r2, r3, #16
 80028d8:	68fb      	ldr	r3, [r7, #12]
 80028da:	621a      	str	r2, [r3, #32]
  tmpccmr1 = TIMx->CCMR1;
 80028dc:	68fb      	ldr	r3, [r7, #12]
 80028de:	699b      	ldr	r3, [r3, #24]
 80028e0:	613b      	str	r3, [r7, #16]

  /* Set the filter */
  tmpccmr1 &= ~TIM_CCMR1_IC2F;
 80028e2:	693b      	ldr	r3, [r7, #16]
 80028e4:	f423 4370 	bic.w	r3, r3, #61440	@ 0xf000
 80028e8:	613b      	str	r3, [r7, #16]
  tmpccmr1 |= (TIM_ICFilter << 12U);
 80028ea:	687b      	ldr	r3, [r7, #4]
 80028ec:	031b      	lsls	r3, r3, #12
 80028ee:	693a      	ldr	r2, [r7, #16]
 80028f0:	4313      	orrs	r3, r2
 80028f2:	613b      	str	r3, [r7, #16]

  /* Select the Polarity and set the CC2E Bit */
  tmpccer &= ~(TIM_CCER_CC2P | TIM_CCER_CC2NP);
 80028f4:	697b      	ldr	r3, [r7, #20]
 80028f6:	f023 03a0 	bic.w	r3, r3, #160	@ 0xa0
 80028fa:	617b      	str	r3, [r7, #20]
  tmpccer |= (TIM_ICPolarity << 4U);
 80028fc:	68bb      	ldr	r3, [r7, #8]
 80028fe:	011b      	lsls	r3, r3, #4
 8002900:	697a      	ldr	r2, [r7, #20]
 8002902:	4313      	orrs	r3, r2
 8002904:	617b      	str	r3, [r7, #20]

  /* Write to TIMx CCMR1 and CCER registers */
  TIMx->CCMR1 = tmpccmr1 ;
 8002906:	68fb      	ldr	r3, [r7, #12]
 8002908:	693a      	ldr	r2, [r7, #16]
 800290a:	619a      	str	r2, [r3, #24]
  TIMx->CCER = tmpccer;
 800290c:	68fb      	ldr	r3, [r7, #12]
 800290e:	697a      	ldr	r2, [r7, #20]
 8002910:	621a      	str	r2, [r3, #32]
}
 8002912:	bf00      	nop
 8002914:	371c      	adds	r7, #28
 8002916:	46bd      	mov	sp, r7
 8002918:	f85d 7b04 	ldr.w	r7, [sp], #4
 800291c:	4770      	bx	lr

0800291e <TIM_ITRx_SetConfig>:
  *            @arg TIM_TS_TI2FP2: Filtered Timer Input 2
  *            @arg TIM_TS_ETRF: External Trigger input
  * @retval None
  */
static void TIM_ITRx_SetConfig(TIM_TypeDef *TIMx, uint32_t InputTriggerSource)
{
 800291e:	b480      	push	{r7}
 8002920:	b085      	sub	sp, #20
 8002922:	af00      	add	r7, sp, #0
 8002924:	6078      	str	r0, [r7, #4]
 8002926:	6039      	str	r1, [r7, #0]
  uint32_t tmpsmcr;

  /* Get the TIMx SMCR register value */
  tmpsmcr = TIMx->SMCR;
 8002928:	687b      	ldr	r3, [r7, #4]
 800292a:	689b      	ldr	r3, [r3, #8]
 800292c:	60fb      	str	r3, [r7, #12]
  /* Reset the TS Bits */
  tmpsmcr &= ~TIM_SMCR_TS;
 800292e:	68fb      	ldr	r3, [r7, #12]
 8002930:	f023 0370 	bic.w	r3, r3, #112	@ 0x70
 8002934:	60fb      	str	r3, [r7, #12]
  /* Set the Input Trigger source and the slave mode*/
  tmpsmcr |= (InputTriggerSource | TIM_SLAVEMODE_EXTERNAL1);
 8002936:	683a      	ldr	r2, [r7, #0]
 8002938:	68fb      	ldr	r3, [r7, #12]
 800293a:	4313      	orrs	r3, r2
 800293c:	f043 0307 	orr.w	r3, r3, #7
 8002940:	60fb      	str	r3, [r7, #12]
  /* Write to TIMx SMCR */
  TIMx->SMCR = tmpsmcr;
 8002942:	687b      	ldr	r3, [r7, #4]
 8002944:	68fa      	ldr	r2, [r7, #12]
 8002946:	609a      	str	r2, [r3, #8]
}
 8002948:	bf00      	nop
 800294a:	3714      	adds	r7, #20
 800294c:	46bd      	mov	sp, r7
 800294e:	f85d 7b04 	ldr.w	r7, [sp], #4
 8002952:	4770      	bx	lr

08002954 <TIM_ETR_SetConfig>:
  *          This parameter must be a value between 0x00 and 0x0F
  * @retval None
  */
void TIM_ETR_SetConfig(TIM_TypeDef *TIMx, uint32_t TIM_ExtTRGPrescaler,
                       uint32_t TIM_ExtTRGPolarity, uint32_t ExtTRGFilter)
{
 8002954:	b480      	push	{r7}
 8002956:	b087      	sub	sp, #28
 8002958:	af00      	add	r7, sp, #0
 800295a:	60f8      	str	r0, [r7, #12]
 800295c:	60b9      	str	r1, [r7, #8]
 800295e:	607a      	str	r2, [r7, #4]
 8002960:	603b      	str	r3, [r7, #0]
  uint32_t tmpsmcr;

  tmpsmcr = TIMx->SMCR;
 8002962:	68fb      	ldr	r3, [r7, #12]
 8002964:	689b      	ldr	r3, [r3, #8]
 8002966:	617b      	str	r3, [r7, #20]

  /* Reset the ETR Bits */
  tmpsmcr &= ~(TIM_SMCR_ETF | TIM_SMCR_ETPS | TIM_SMCR_ECE | TIM_SMCR_ETP);
 8002968:	697b      	ldr	r3, [r7, #20]
 800296a:	f423 437f 	bic.w	r3, r3, #65280	@ 0xff00
 800296e:	617b      	str	r3, [r7, #20]

  /* Set the Prescaler, the Filter value and the Polarity */
  tmpsmcr |= (uint32_t)(TIM_ExtTRGPrescaler | (TIM_ExtTRGPolarity | (ExtTRGFilter << 8U)));
 8002970:	683b      	ldr	r3, [r7, #0]
 8002972:	021a      	lsls	r2, r3, #8
 8002974:	687b      	ldr	r3, [r7, #4]
 8002976:	431a      	orrs	r2, r3
 8002978:	68bb      	ldr	r3, [r7, #8]
 800297a:	4313      	orrs	r3, r2
 800297c:	697a      	ldr	r2, [r7, #20]
 800297e:	4313      	orrs	r3, r2
 8002980:	617b      	str	r3, [r7, #20]

  /* Write to TIMx SMCR */
  TIMx->SMCR = tmpsmcr;
 8002982:	68fb      	ldr	r3, [r7, #12]
 8002984:	697a      	ldr	r2, [r7, #20]
 8002986:	609a      	str	r2, [r3, #8]
}
 8002988:	bf00      	nop
 800298a:	371c      	adds	r7, #28
 800298c:	46bd      	mov	sp, r7
 800298e:	f85d 7b04 	ldr.w	r7, [sp], #4
 8002992:	4770      	bx	lr

08002994 <TIM_CCxChannelCmd>:
  * @param  ChannelState specifies the TIM Channel CCxE bit new state.
  *          This parameter can be: TIM_CCx_ENABLE or TIM_CCx_DISABLE.
  * @retval None
  */
void TIM_CCxChannelCmd(TIM_TypeDef *TIMx, uint32_t Channel, uint32_t ChannelState)
{
 8002994:	b480      	push	{r7}
 8002996:	b087      	sub	sp, #28
 8002998:	af00      	add	r7, sp, #0
 800299a:	60f8      	str	r0, [r7, #12]
 800299c:	60b9      	str	r1, [r7, #8]
 800299e:	607a      	str	r2, [r7, #4]

  /* Check the parameters */
  assert_param(IS_TIM_CC1_INSTANCE(TIMx));
  assert_param(IS_TIM_CHANNELS(Channel));

  tmp = TIM_CCER_CC1E << (Channel & 0x1FU); /* 0x1FU = 31 bits max shift */
 80029a0:	68bb      	ldr	r3, [r7, #8]
 80029a2:	f003 031f 	and.w	r3, r3, #31
 80029a6:	2201      	movs	r2, #1
 80029a8:	fa02 f303 	lsl.w	r3, r2, r3
 80029ac:	617b      	str	r3, [r7, #20]

  /* Reset the CCxE Bit */
  TIMx->CCER &= ~tmp;
 80029ae:	68fb      	ldr	r3, [r7, #12]
 80029b0:	6a1a      	ldr	r2, [r3, #32]
 80029b2:	697b      	ldr	r3, [r7, #20]
 80029b4:	43db      	mvns	r3, r3
 80029b6:	401a      	ands	r2, r3
 80029b8:	68fb      	ldr	r3, [r7, #12]
 80029ba:	621a      	str	r2, [r3, #32]

  /* Set or reset the CCxE Bit */
  TIMx->CCER |= (uint32_t)(ChannelState << (Channel & 0x1FU)); /* 0x1FU = 31 bits max shift */
 80029bc:	68fb      	ldr	r3, [r7, #12]
 80029be:	6a1a      	ldr	r2, [r3, #32]
 80029c0:	68bb      	ldr	r3, [r7, #8]
 80029c2:	f003 031f 	and.w	r3, r3, #31
 80029c6:	6879      	ldr	r1, [r7, #4]
 80029c8:	fa01 f303 	lsl.w	r3, r1, r3
 80029cc:	431a      	orrs	r2, r3
 80029ce:	68fb      	ldr	r3, [r7, #12]
 80029d0:	621a      	str	r2, [r3, #32]
}
 80029d2:	bf00      	nop
 80029d4:	371c      	adds	r7, #28
 80029d6:	46bd      	mov	sp, r7
 80029d8:	f85d 7b04 	ldr.w	r7, [sp], #4
 80029dc:	4770      	bx	lr
	...

080029e0 <HAL_TIMEx_MasterConfigSynchronization>:
  *         mode.
  * @retval HAL status
  */
HAL_StatusTypeDef HAL_TIMEx_MasterConfigSynchronization(TIM_HandleTypeDef *htim,
                                                        const TIM_MasterConfigTypeDef *sMasterConfig)
{
 80029e0:	b480      	push	{r7}
 80029e2:	b085      	sub	sp, #20
 80029e4:	af00      	add	r7, sp, #0
 80029e6:	6078      	str	r0, [r7, #4]
 80029e8:	6039      	str	r1, [r7, #0]
  assert_param(IS_TIM_MASTER_INSTANCE(htim->Instance));
  assert_param(IS_TIM_TRGO_SOURCE(sMasterConfig->MasterOutputTrigger));
  assert_param(IS_TIM_MSM_STATE(sMasterConfig->MasterSlaveMode));

  /* Check input state */
  __HAL_LOCK(htim);
 80029ea:	687b      	ldr	r3, [r7, #4]
 80029ec:	f893 303c 	ldrb.w	r3, [r3, #60]	@ 0x3c
 80029f0:	2b01      	cmp	r3, #1
 80029f2:	d101      	bne.n	80029f8 <HAL_TIMEx_MasterConfigSynchronization+0x18>
 80029f4:	2302      	movs	r3, #2
 80029f6:	e05a      	b.n	8002aae <HAL_TIMEx_MasterConfigSynchronization+0xce>
 80029f8:	687b      	ldr	r3, [r7, #4]
 80029fa:	2201      	movs	r2, #1
 80029fc:	f883 203c 	strb.w	r2, [r3, #60]	@ 0x3c

  /* Change the handler state */
  htim->State = HAL_TIM_STATE_BUSY;
 8002a00:	687b      	ldr	r3, [r7, #4]
 8002a02:	2202      	movs	r2, #2
 8002a04:	f883 203d 	strb.w	r2, [r3, #61]	@ 0x3d

  /* Get the TIMx CR2 register value */
  tmpcr2 = htim->Instance->CR2;
 8002a08:	687b      	ldr	r3, [r7, #4]
 8002a0a:	681b      	ldr	r3, [r3, #0]
 8002a0c:	685b      	ldr	r3, [r3, #4]
 8002a0e:	60fb      	str	r3, [r7, #12]

  /* Get the TIMx SMCR register value */
  tmpsmcr = htim->Instance->SMCR;
 8002a10:	687b      	ldr	r3, [r7, #4]
 8002a12:	681b      	ldr	r3, [r3, #0]
 8002a14:	689b      	ldr	r3, [r3, #8]
 8002a16:	60bb      	str	r3, [r7, #8]

  /* Reset the MMS Bits */
  tmpcr2 &= ~TIM_CR2_MMS;
 8002a18:	68fb      	ldr	r3, [r7, #12]
 8002a1a:	f023 0370 	bic.w	r3, r3, #112	@ 0x70
 8002a1e:	60fb      	str	r3, [r7, #12]
  /* Select the TRGO source */
  tmpcr2 |=  sMasterConfig->MasterOutputTrigger;
 8002a20:	683b      	ldr	r3, [r7, #0]
 8002a22:	681b      	ldr	r3, [r3, #0]
 8002a24:	68fa      	ldr	r2, [r7, #12]
 8002a26:	4313      	orrs	r3, r2
 8002a28:	60fb      	str	r3, [r7, #12]

  /* Update TIMx CR2 */
  htim->Instance->CR2 = tmpcr2;
 8002a2a:	687b      	ldr	r3, [r7, #4]
 8002a2c:	681b      	ldr	r3, [r3, #0]
 8002a2e:	68fa      	ldr	r2, [r7, #12]
 8002a30:	605a      	str	r2, [r3, #4]

  if (IS_TIM_SLAVE_INSTANCE(htim->Instance))
 8002a32:	687b      	ldr	r3, [r7, #4]
 8002a34:	681b      	ldr	r3, [r3, #0]
 8002a36:	4a21      	ldr	r2, [pc, #132]	@ (8002abc <HAL_TIMEx_MasterConfigSynchronization+0xdc>)
 8002a38:	4293      	cmp	r3, r2
 8002a3a:	d022      	beq.n	8002a82 <HAL_TIMEx_MasterConfigSynchronization+0xa2>
 8002a3c:	687b      	ldr	r3, [r7, #4]
 8002a3e:	681b      	ldr	r3, [r3, #0]
 8002a40:	f1b3 4f80 	cmp.w	r3, #1073741824	@ 0x40000000
 8002a44:	d01d      	beq.n	8002a82 <HAL_TIMEx_MasterConfigSynchronization+0xa2>
 8002a46:	687b      	ldr	r3, [r7, #4]
 8002a48:	681b      	ldr	r3, [r3, #0]
 8002a4a:	4a1d      	ldr	r2, [pc, #116]	@ (8002ac0 <HAL_TIMEx_MasterConfigSynchronization+0xe0>)
 8002a4c:	4293      	cmp	r3, r2
 8002a4e:	d018      	beq.n	8002a82 <HAL_TIMEx_MasterConfigSynchronization+0xa2>
 8002a50:	687b      	ldr	r3, [r7, #4]
 8002a52:	681b      	ldr	r3, [r3, #0]
 8002a54:	4a1b      	ldr	r2, [pc, #108]	@ (8002ac4 <HAL_TIMEx_MasterConfigSynchronization+0xe4>)
 8002a56:	4293      	cmp	r3, r2
 8002a58:	d013      	beq.n	8002a82 <HAL_TIMEx_MasterConfigSynchronization+0xa2>
 8002a5a:	687b      	ldr	r3, [r7, #4]
 8002a5c:	681b      	ldr	r3, [r3, #0]
 8002a5e:	4a1a      	ldr	r2, [pc, #104]	@ (8002ac8 <HAL_TIMEx_MasterConfigSynchronization+0xe8>)
 8002a60:	4293      	cmp	r3, r2
 8002a62:	d00e      	beq.n	8002a82 <HAL_TIMEx_MasterConfigSynchronization+0xa2>
 8002a64:	687b      	ldr	r3, [r7, #4]
 8002a66:	681b      	ldr	r3, [r3, #0]
 8002a68:	4a18      	ldr	r2, [pc, #96]	@ (8002acc <HAL_TIMEx_MasterConfigSynchronization+0xec>)
 8002a6a:	4293      	cmp	r3, r2
 8002a6c:	d009      	beq.n	8002a82 <HAL_TIMEx_MasterConfigSynchronization+0xa2>
 8002a6e:	687b      	ldr	r3, [r7, #4]
 8002a70:	681b      	ldr	r3, [r3, #0]
 8002a72:	4a17      	ldr	r2, [pc, #92]	@ (8002ad0 <HAL_TIMEx_MasterConfigSynchronization+0xf0>)
 8002a74:	4293      	cmp	r3, r2
 8002a76:	d004      	beq.n	8002a82 <HAL_TIMEx_MasterConfigSynchronization+0xa2>
 8002a78:	687b      	ldr	r3, [r7, #4]
 8002a7a:	681b      	ldr	r3, [r3, #0]
 8002a7c:	4a15      	ldr	r2, [pc, #84]	@ (8002ad4 <HAL_TIMEx_MasterConfigSynchronization+0xf4>)
 8002a7e:	4293      	cmp	r3, r2
 8002a80:	d10c      	bne.n	8002a9c <HAL_TIMEx_MasterConfigSynchronization+0xbc>
  {
    /* Reset the MSM Bit */
    tmpsmcr &= ~TIM_SMCR_MSM;
 8002a82:	68bb      	ldr	r3, [r7, #8]
 8002a84:	f023 0380 	bic.w	r3, r3, #128	@ 0x80
 8002a88:	60bb      	str	r3, [r7, #8]
    /* Set master mode */
    tmpsmcr |= sMasterConfig->MasterSlaveMode;
 8002a8a:	683b      	ldr	r3, [r7, #0]
 8002a8c:	685b      	ldr	r3, [r3, #4]
 8002a8e:	68ba      	ldr	r2, [r7, #8]
 8002a90:	4313      	orrs	r3, r2
 8002a92:	60bb      	str	r3, [r7, #8]

    /* Update TIMx SMCR */
    htim->Instance->SMCR = tmpsmcr;
 8002a94:	687b      	ldr	r3, [r7, #4]
 8002a96:	681b      	ldr	r3, [r3, #0]
 8002a98:	68ba      	ldr	r2, [r7, #8]
 8002a9a:	609a      	str	r2, [r3, #8]
  }

  /* Change the htim state */
  htim->State = HAL_TIM_STATE_READY;
 8002a9c:	687b      	ldr	r3, [r7, #4]
 8002a9e:	2201      	movs	r2, #1
 8002aa0:	f883 203d 	strb.w	r2, [r3, #61]	@ 0x3d

  __HAL_UNLOCK(htim);
 8002aa4:	687b      	ldr	r3, [r7, #4]
 8002aa6:	2200      	movs	r2, #0
 8002aa8:	f883 203c 	strb.w	r2, [r3, #60]	@ 0x3c

  return HAL_OK;
 8002aac:	2300      	movs	r3, #0
}
 8002aae:	4618      	mov	r0, r3
 8002ab0:	3714      	adds	r7, #20
 8002ab2:	46bd      	mov	sp, r7
 8002ab4:	f85d 7b04 	ldr.w	r7, [sp], #4
 8002ab8:	4770      	bx	lr
 8002aba:	bf00      	nop
 8002abc:	40010000 	.word	0x40010000
 8002ac0:	40000400 	.word	0x40000400
 8002ac4:	40000800 	.word	0x40000800
 8002ac8:	40000c00 	.word	0x40000c00
 8002acc:	40010400 	.word	0x40010400
 8002ad0:	40014000 	.word	0x40014000
 8002ad4:	40001800 	.word	0x40001800

08002ad8 <HAL_UART_Init>:
  * @param  huart  Pointer to a UART_HandleTypeDef structure that contains
  *                the configuration information for the specified UART module.
  * @retval HAL status
  */
HAL_StatusTypeDef HAL_UART_Init(UART_HandleTypeDef *huart)
{
 8002ad8:	b580      	push	{r7, lr}
 8002ada:	b082      	sub	sp, #8
 8002adc:	af00      	add	r7, sp, #0
 8002ade:	6078      	str	r0, [r7, #4]
  /* Check the UART handle allocation */
  if (huart == NULL)
 8002ae0:	687b      	ldr	r3, [r7, #4]
 8002ae2:	2b00      	cmp	r3, #0
 8002ae4:	d101      	bne.n	8002aea <HAL_UART_Init+0x12>
  {
    return HAL_ERROR;
 8002ae6:	2301      	movs	r3, #1
 8002ae8:	e042      	b.n	8002b70 <HAL_UART_Init+0x98>
    assert_param(IS_UART_INSTANCE(huart->Instance));
  }
  assert_param(IS_UART_WORD_LENGTH(huart->Init.WordLength));
  assert_param(IS_UART_OVERSAMPLING(huart->Init.OverSampling));

  if (huart->gState == HAL_UART_STATE_RESET)
 8002aea:	687b      	ldr	r3, [r7, #4]
 8002aec:	f893 3041 	ldrb.w	r3, [r3, #65]	@ 0x41
 8002af0:	b2db      	uxtb	r3, r3
 8002af2:	2b00      	cmp	r3, #0
 8002af4:	d106      	bne.n	8002b04 <HAL_UART_Init+0x2c>
  {
    /* Allocate lock resource and initialize it */
    huart->Lock = HAL_UNLOCKED;
 8002af6:	687b      	ldr	r3, [r7, #4]
 8002af8:	2200      	movs	r2, #0
 8002afa:	f883 2040 	strb.w	r2, [r3, #64]	@ 0x40

    /* Init the low level hardware */
    huart->MspInitCallback(huart);
#else
    /* Init the low level hardware : GPIO, CLOCK */
    HAL_UART_MspInit(huart);
 8002afe:	6878      	ldr	r0, [r7, #4]
 8002b00:	f7fd ffb6 	bl	8000a70 <HAL_UART_MspInit>
#endif /* (USE_HAL_UART_REGISTER_CALLBACKS) */
  }

  huart->gState = HAL_UART_STATE_BUSY;
 8002b04:	687b      	ldr	r3, [r7, #4]
 8002b06:	2224      	movs	r2, #36	@ 0x24
 8002b08:	f883 2041 	strb.w	r2, [r3, #65]	@ 0x41

  /* Disable the peripheral */
  __HAL_UART_DISABLE(huart);
 8002b0c:	687b      	ldr	r3, [r7, #4]
 8002b0e:	681b      	ldr	r3, [r3, #0]
 8002b10:	68da      	ldr	r2, [r3, #12]
 8002b12:	687b      	ldr	r3, [r7, #4]
 8002b14:	681b      	ldr	r3, [r3, #0]
 8002b16:	f422 5200 	bic.w	r2, r2, #8192	@ 0x2000
 8002b1a:	60da      	str	r2, [r3, #12]

  /* Set the UART Communication parameters */
  UART_SetConfig(huart);
 8002b1c:	6878      	ldr	r0, [r7, #4]
 8002b1e:	f000 f82b 	bl	8002b78 <UART_SetConfig>

  /* In asynchronous mode, the following bits must be kept cleared:
     - LINEN and CLKEN bits in the USART_CR2 register,
     - SCEN, HDSEL and IREN  bits in the USART_CR3 register.*/
  CLEAR_BIT(huart->Instance->CR2, (USART_CR2_LINEN | USART_CR2_CLKEN));
 8002b22:	687b      	ldr	r3, [r7, #4]
 8002b24:	681b      	ldr	r3, [r3, #0]
 8002b26:	691a      	ldr	r2, [r3, #16]
 8002b28:	687b      	ldr	r3, [r7, #4]
 8002b2a:	681b      	ldr	r3, [r3, #0]
 8002b2c:	f422 4290 	bic.w	r2, r2, #18432	@ 0x4800
 8002b30:	611a      	str	r2, [r3, #16]
  CLEAR_BIT(huart->Instance->CR3, (USART_CR3_SCEN | USART_CR3_HDSEL | USART_CR3_IREN));
 8002b32:	687b      	ldr	r3, [r7, #4]
 8002b34:	681b      	ldr	r3, [r3, #0]
 8002b36:	695a      	ldr	r2, [r3, #20]
 8002b38:	687b      	ldr	r3, [r7, #4]
 8002b3a:	681b      	ldr	r3, [r3, #0]
 8002b3c:	f022 022a 	bic.w	r2, r2, #42	@ 0x2a
 8002b40:	615a      	str	r2, [r3, #20]

  /* Enable the peripheral */
  __HAL_UART_ENABLE(huart);
 8002b42:	687b      	ldr	r3, [r7, #4]
 8002b44:	681b      	ldr	r3, [r3, #0]
 8002b46:	68da      	ldr	r2, [r3, #12]
 8002b48:	687b      	ldr	r3, [r7, #4]
 8002b4a:	681b      	ldr	r3, [r3, #0]
 8002b4c:	f442 5200 	orr.w	r2, r2, #8192	@ 0x2000
 8002b50:	60da      	str	r2, [r3, #12]

  /* Initialize the UART state */
  huart->ErrorCode = HAL_UART_ERROR_NONE;
 8002b52:	687b      	ldr	r3, [r7, #4]
 8002b54:	2200      	movs	r2, #0
 8002b56:	645a      	str	r2, [r3, #68]	@ 0x44
  huart->gState = HAL_UART_STATE_READY;
 8002b58:	687b      	ldr	r3, [r7, #4]
 8002b5a:	2220      	movs	r2, #32
 8002b5c:	f883 2041 	strb.w	r2, [r3, #65]	@ 0x41
  huart->RxState = HAL_UART_STATE_READY;
 8002b60:	687b      	ldr	r3, [r7, #4]
 8002b62:	2220      	movs	r2, #32
 8002b64:	f883 2042 	strb.w	r2, [r3, #66]	@ 0x42
  huart->RxEventType = HAL_UART_RXEVENT_TC;
 8002b68:	687b      	ldr	r3, [r7, #4]
 8002b6a:	2200      	movs	r2, #0
 8002b6c:	635a      	str	r2, [r3, #52]	@ 0x34

  return HAL_OK;
 8002b6e:	2300      	movs	r3, #0
}
 8002b70:	4618      	mov	r0, r3
 8002b72:	3708      	adds	r7, #8
 8002b74:	46bd      	mov	sp, r7
 8002b76:	bd80      	pop	{r7, pc}

08002b78 <UART_SetConfig>:
  * @param  huart  Pointer to a UART_HandleTypeDef structure that contains
  *                the configuration information for the specified UART module.
  * @retval None
  */
static void UART_SetConfig(UART_HandleTypeDef *huart)
{
 8002b78:	e92d 4fb0 	stmdb	sp!, {r4, r5, r7, r8, r9, sl, fp, lr}
 8002b7c:	b0c0      	sub	sp, #256	@ 0x100
 8002b7e:	af00      	add	r7, sp, #0
 8002b80:	f8c7 00f4 	str.w	r0, [r7, #244]	@ 0xf4
  assert_param(IS_UART_MODE(huart->Init.Mode));

  /*-------------------------- USART CR2 Configuration -----------------------*/
  /* Configure the UART Stop Bits: Set STOP[13:12] bits
     according to huart->Init.StopBits value */
  MODIFY_REG(huart->Instance->CR2, USART_CR2_STOP, huart->Init.StopBits);
 8002b84:	f8d7 30f4 	ldr.w	r3, [r7, #244]	@ 0xf4
 8002b88:	681b      	ldr	r3, [r3, #0]
 8002b8a:	691b      	ldr	r3, [r3, #16]
 8002b8c:	f423 5040 	bic.w	r0, r3, #12288	@ 0x3000
 8002b90:	f8d7 30f4 	ldr.w	r3, [r7, #244]	@ 0xf4
 8002b94:	68d9      	ldr	r1, [r3, #12]
 8002b96:	f8d7 30f4 	ldr.w	r3, [r7, #244]	@ 0xf4
 8002b9a:	681a      	ldr	r2, [r3, #0]
 8002b9c:	ea40 0301 	orr.w	r3, r0, r1
 8002ba0:	6113      	str	r3, [r2, #16]
     Set the M bits according to huart->Init.WordLength value
     Set PCE and PS bits according to huart->Init.Parity value
     Set TE and RE bits according to huart->Init.Mode value
     Set OVER8 bit according to huart->Init.OverSampling value */

  tmpreg = (uint32_t)huart->Init.WordLength | huart->Init.Parity | huart->Init.Mode | huart->Init.OverSampling;
 8002ba2:	f8d7 30f4 	ldr.w	r3, [r7, #244]	@ 0xf4
 8002ba6:	689a      	ldr	r2, [r3, #8]
 8002ba8:	f8d7 30f4 	ldr.w	r3, [r7, #244]	@ 0xf4
 8002bac:	691b      	ldr	r3, [r3, #16]
 8002bae:	431a      	orrs	r2, r3
 8002bb0:	f8d7 30f4 	ldr.w	r3, [r7, #244]	@ 0xf4
 8002bb4:	695b      	ldr	r3, [r3, #20]
 8002bb6:	431a      	orrs	r2, r3
 8002bb8:	f8d7 30f4 	ldr.w	r3, [r7, #244]	@ 0xf4
 8002bbc:	69db      	ldr	r3, [r3, #28]
 8002bbe:	4313      	orrs	r3, r2
 8002bc0:	f8c7 30f8 	str.w	r3, [r7, #248]	@ 0xf8
  MODIFY_REG(huart->Instance->CR1,
 8002bc4:	f8d7 30f4 	ldr.w	r3, [r7, #244]	@ 0xf4
 8002bc8:	681b      	ldr	r3, [r3, #0]
 8002bca:	68db      	ldr	r3, [r3, #12]
 8002bcc:	f423 4116 	bic.w	r1, r3, #38400	@ 0x9600
 8002bd0:	f021 010c 	bic.w	r1, r1, #12
 8002bd4:	f8d7 30f4 	ldr.w	r3, [r7, #244]	@ 0xf4
 8002bd8:	681a      	ldr	r2, [r3, #0]
 8002bda:	f8d7 30f8 	ldr.w	r3, [r7, #248]	@ 0xf8
 8002bde:	430b      	orrs	r3, r1
 8002be0:	60d3      	str	r3, [r2, #12]
             (uint32_t)(USART_CR1_M | USART_CR1_PCE | USART_CR1_PS | USART_CR1_TE | USART_CR1_RE | USART_CR1_OVER8),
             tmpreg);

  /*-------------------------- USART CR3 Configuration -----------------------*/
  /* Configure the UART HFC: Set CTSE and RTSE bits according to huart->Init.HwFlowCtl value */
  MODIFY_REG(huart->Instance->CR3, (USART_CR3_RTSE | USART_CR3_CTSE), huart->Init.HwFlowCtl);
 8002be2:	f8d7 30f4 	ldr.w	r3, [r7, #244]	@ 0xf4
 8002be6:	681b      	ldr	r3, [r3, #0]
 8002be8:	695b      	ldr	r3, [r3, #20]
 8002bea:	f423 7040 	bic.w	r0, r3, #768	@ 0x300
 8002bee:	f8d7 30f4 	ldr.w	r3, [r7, #244]	@ 0xf4
 8002bf2:	6999      	ldr	r1, [r3, #24]
 8002bf4:	f8d7 30f4 	ldr.w	r3, [r7, #244]	@ 0xf4
 8002bf8:	681a      	ldr	r2, [r3, #0]
 8002bfa:	ea40 0301 	orr.w	r3, r0, r1
 8002bfe:	6153      	str	r3, [r2, #20]
    if ((huart->Instance == USART1) || (huart->Instance == USART6) || (huart->Instance == UART9) || (huart->Instance == UART10))
    {
      pclk = HAL_RCC_GetPCLK2Freq();
    }
#elif defined(USART6)
    if ((huart->Instance == USART1) || (huart->Instance == USART6))
 8002c00:	f8d7 30f4 	ldr.w	r3, [r7, #244]	@ 0xf4
 8002c04:	681a      	ldr	r2, [r3, #0]
 8002c06:	4b8f      	ldr	r3, [pc, #572]	@ (8002e44 <UART_SetConfig+0x2cc>)
 8002c08:	429a      	cmp	r2, r3
 8002c0a:	d005      	beq.n	8002c18 <UART_SetConfig+0xa0>
 8002c0c:	f8d7 30f4 	ldr.w	r3, [r7, #244]	@ 0xf4
 8002c10:	681a      	ldr	r2, [r3, #0]
 8002c12:	4b8d      	ldr	r3, [pc, #564]	@ (8002e48 <UART_SetConfig+0x2d0>)
 8002c14:	429a      	cmp	r2, r3
 8002c16:	d104      	bne.n	8002c22 <UART_SetConfig+0xaa>
    {
      pclk = HAL_RCC_GetPCLK2Freq();
 8002c18:	f7fe fbf4 	bl	8001404 <HAL_RCC_GetPCLK2Freq>
 8002c1c:	f8c7 00fc 	str.w	r0, [r7, #252]	@ 0xfc
 8002c20:	e003      	b.n	8002c2a <UART_SetConfig+0xb2>
      pclk = HAL_RCC_GetPCLK2Freq();
    }
#endif /* USART6 */
    else
    {
      pclk = HAL_RCC_GetPCLK1Freq();
 8002c22:	f7fe fbdb 	bl	80013dc <HAL_RCC_GetPCLK1Freq>
 8002c26:	f8c7 00fc 	str.w	r0, [r7, #252]	@ 0xfc
    }
  /*-------------------------- USART BRR Configuration ---------------------*/
  if (huart->Init.OverSampling == UART_OVERSAMPLING_8)
 8002c2a:	f8d7 30f4 	ldr.w	r3, [r7, #244]	@ 0xf4
 8002c2e:	69db      	ldr	r3, [r3, #28]
 8002c30:	f5b3 4f00 	cmp.w	r3, #32768	@ 0x8000
 8002c34:	f040 810c 	bne.w	8002e50 <UART_SetConfig+0x2d8>
  {
    huart->Instance->BRR = UART_BRR_SAMPLING8(pclk, huart->Init.BaudRate);
 8002c38:	f8d7 30fc 	ldr.w	r3, [r7, #252]	@ 0xfc
 8002c3c:	2200      	movs	r2, #0
 8002c3e:	f8c7 30e8 	str.w	r3, [r7, #232]	@ 0xe8
 8002c42:	f8c7 20ec 	str.w	r2, [r7, #236]	@ 0xec
 8002c46:	e9d7 453a 	ldrd	r4, r5, [r7, #232]	@ 0xe8
 8002c4a:	4622      	mov	r2, r4
 8002c4c:	462b      	mov	r3, r5
 8002c4e:	1891      	adds	r1, r2, r2
 8002c50:	65b9      	str	r1, [r7, #88]	@ 0x58
 8002c52:	415b      	adcs	r3, r3
 8002c54:	65fb      	str	r3, [r7, #92]	@ 0x5c
 8002c56:	e9d7 2316 	ldrd	r2, r3, [r7, #88]	@ 0x58
 8002c5a:	4621      	mov	r1, r4
 8002c5c:	eb12 0801 	adds.w	r8, r2, r1
 8002c60:	4629      	mov	r1, r5
 8002c62:	eb43 0901 	adc.w	r9, r3, r1
 8002c66:	f04f 0200 	mov.w	r2, #0
 8002c6a:	f04f 0300 	mov.w	r3, #0
 8002c6e:	ea4f 03c9 	mov.w	r3, r9, lsl #3
 8002c72:	ea43 7358 	orr.w	r3, r3, r8, lsr #29
 8002c76:	ea4f 02c8 	mov.w	r2, r8, lsl #3
 8002c7a:	4690      	mov	r8, r2
 8002c7c:	4699      	mov	r9, r3
 8002c7e:	4623      	mov	r3, r4
 8002c80:	eb18 0303 	adds.w	r3, r8, r3
 8002c84:	f8c7 30e0 	str.w	r3, [r7, #224]	@ 0xe0
 8002c88:	462b      	mov	r3, r5
 8002c8a:	eb49 0303 	adc.w	r3, r9, r3
 8002c8e:	f8c7 30e4 	str.w	r3, [r7, #228]	@ 0xe4
 8002c92:	f8d7 30f4 	ldr.w	r3, [r7, #244]	@ 0xf4
 8002c96:	685b      	ldr	r3, [r3, #4]
 8002c98:	2200      	movs	r2, #0
 8002c9a:	f8c7 30d8 	str.w	r3, [r7, #216]	@ 0xd8
 8002c9e:	f8c7 20dc 	str.w	r2, [r7, #220]	@ 0xdc
 8002ca2:	e9d7 1236 	ldrd	r1, r2, [r7, #216]	@ 0xd8
 8002ca6:	460b      	mov	r3, r1
 8002ca8:	18db      	adds	r3, r3, r3
 8002caa:	653b      	str	r3, [r7, #80]	@ 0x50
 8002cac:	4613      	mov	r3, r2
 8002cae:	eb42 0303 	adc.w	r3, r2, r3
 8002cb2:	657b      	str	r3, [r7, #84]	@ 0x54
 8002cb4:	e9d7 2314 	ldrd	r2, r3, [r7, #80]	@ 0x50
 8002cb8:	e9d7 0138 	ldrd	r0, r1, [r7, #224]	@ 0xe0
 8002cbc:	f7fd faa2 	bl	8000204 <__aeabi_uldivmod>
 8002cc0:	4602      	mov	r2, r0
 8002cc2:	460b      	mov	r3, r1
 8002cc4:	4b61      	ldr	r3, [pc, #388]	@ (8002e4c <UART_SetConfig+0x2d4>)
 8002cc6:	fba3 2302 	umull	r2, r3, r3, r2
 8002cca:	095b      	lsrs	r3, r3, #5
 8002ccc:	011c      	lsls	r4, r3, #4
 8002cce:	f8d7 30fc 	ldr.w	r3, [r7, #252]	@ 0xfc
 8002cd2:	2200      	movs	r2, #0
 8002cd4:	f8c7 30d0 	str.w	r3, [r7, #208]	@ 0xd0
 8002cd8:	f8c7 20d4 	str.w	r2, [r7, #212]	@ 0xd4
 8002cdc:	e9d7 8934 	ldrd	r8, r9, [r7, #208]	@ 0xd0
 8002ce0:	4642      	mov	r2, r8
 8002ce2:	464b      	mov	r3, r9
 8002ce4:	1891      	adds	r1, r2, r2
 8002ce6:	64b9      	str	r1, [r7, #72]	@ 0x48
 8002ce8:	415b      	adcs	r3, r3
 8002cea:	64fb      	str	r3, [r7, #76]	@ 0x4c
 8002cec:	e9d7 2312 	ldrd	r2, r3, [r7, #72]	@ 0x48
 8002cf0:	4641      	mov	r1, r8
 8002cf2:	eb12 0a01 	adds.w	sl, r2, r1
 8002cf6:	4649      	mov	r1, r9
 8002cf8:	eb43 0b01 	adc.w	fp, r3, r1
 8002cfc:	f04f 0200 	mov.w	r2, #0
 8002d00:	f04f 0300 	mov.w	r3, #0
 8002d04:	ea4f 03cb 	mov.w	r3, fp, lsl #3
 8002d08:	ea43 735a 	orr.w	r3, r3, sl, lsr #29
 8002d0c:	ea4f 02ca 	mov.w	r2, sl, lsl #3
 8002d10:	4692      	mov	sl, r2
 8002d12:	469b      	mov	fp, r3
 8002d14:	4643      	mov	r3, r8
 8002d16:	eb1a 0303 	adds.w	r3, sl, r3
 8002d1a:	f8c7 30c8 	str.w	r3, [r7, #200]	@ 0xc8
 8002d1e:	464b      	mov	r3, r9
 8002d20:	eb4b 0303 	adc.w	r3, fp, r3
 8002d24:	f8c7 30cc 	str.w	r3, [r7, #204]	@ 0xcc
 8002d28:	f8d7 30f4 	ldr.w	r3, [r7, #244]	@ 0xf4
 8002d2c:	685b      	ldr	r3, [r3, #4]
 8002d2e:	2200      	movs	r2, #0
 8002d30:	f8c7 30c0 	str.w	r3, [r7, #192]	@ 0xc0
 8002d34:	f8c7 20c4 	str.w	r2, [r7, #196]	@ 0xc4
 8002d38:	e9d7 1230 	ldrd	r1, r2, [r7, #192]	@ 0xc0
 8002d3c:	460b      	mov	r3, r1
 8002d3e:	18db      	adds	r3, r3, r3
 8002d40:	643b      	str	r3, [r7, #64]	@ 0x40
 8002d42:	4613      	mov	r3, r2
 8002d44:	eb42 0303 	adc.w	r3, r2, r3
 8002d48:	647b      	str	r3, [r7, #68]	@ 0x44
 8002d4a:	e9d7 2310 	ldrd	r2, r3, [r7, #64]	@ 0x40
 8002d4e:	e9d7 0132 	ldrd	r0, r1, [r7, #200]	@ 0xc8
 8002d52:	f7fd fa57 	bl	8000204 <__aeabi_uldivmod>
 8002d56:	4602      	mov	r2, r0
 8002d58:	460b      	mov	r3, r1
 8002d5a:	4611      	mov	r1, r2
 8002d5c:	4b3b      	ldr	r3, [pc, #236]	@ (8002e4c <UART_SetConfig+0x2d4>)
 8002d5e:	fba3 2301 	umull	r2, r3, r3, r1
 8002d62:	095b      	lsrs	r3, r3, #5
 8002d64:	2264      	movs	r2, #100	@ 0x64
 8002d66:	fb02 f303 	mul.w	r3, r2, r3
 8002d6a:	1acb      	subs	r3, r1, r3
 8002d6c:	00db      	lsls	r3, r3, #3
 8002d6e:	f103 0232 	add.w	r2, r3, #50	@ 0x32
 8002d72:	4b36      	ldr	r3, [pc, #216]	@ (8002e4c <UART_SetConfig+0x2d4>)
 8002d74:	fba3 2302 	umull	r2, r3, r3, r2
 8002d78:	095b      	lsrs	r3, r3, #5
 8002d7a:	005b      	lsls	r3, r3, #1
 8002d7c:	f403 73f8 	and.w	r3, r3, #496	@ 0x1f0
 8002d80:	441c      	add	r4, r3
 8002d82:	f8d7 30fc 	ldr.w	r3, [r7, #252]	@ 0xfc
 8002d86:	2200      	movs	r2, #0
 8002d88:	f8c7 30b8 	str.w	r3, [r7, #184]	@ 0xb8
 8002d8c:	f8c7 20bc 	str.w	r2, [r7, #188]	@ 0xbc
 8002d90:	e9d7 892e 	ldrd	r8, r9, [r7, #184]	@ 0xb8
 8002d94:	4642      	mov	r2, r8
 8002d96:	464b      	mov	r3, r9
 8002d98:	1891      	adds	r1, r2, r2
 8002d9a:	63b9      	str	r1, [r7, #56]	@ 0x38
 8002d9c:	415b      	adcs	r3, r3
 8002d9e:	63fb      	str	r3, [r7, #60]	@ 0x3c
 8002da0:	e9d7 230e 	ldrd	r2, r3, [r7, #56]	@ 0x38
 8002da4:	4641      	mov	r1, r8
 8002da6:	1851      	adds	r1, r2, r1
 8002da8:	6339      	str	r1, [r7, #48]	@ 0x30
 8002daa:	4649      	mov	r1, r9
 8002dac:	414b      	adcs	r3, r1
 8002dae:	637b      	str	r3, [r7, #52]	@ 0x34
 8002db0:	f04f 0200 	mov.w	r2, #0
 8002db4:	f04f 0300 	mov.w	r3, #0
 8002db8:	e9d7 ab0c 	ldrd	sl, fp, [r7, #48]	@ 0x30
 8002dbc:	4659      	mov	r1, fp
 8002dbe:	00cb      	lsls	r3, r1, #3
 8002dc0:	4651      	mov	r1, sl
 8002dc2:	ea43 7351 	orr.w	r3, r3, r1, lsr #29
 8002dc6:	4651      	mov	r1, sl
 8002dc8:	00ca      	lsls	r2, r1, #3
 8002dca:	4610      	mov	r0, r2
 8002dcc:	4619      	mov	r1, r3
 8002dce:	4603      	mov	r3, r0
 8002dd0:	4642      	mov	r2, r8
 8002dd2:	189b      	adds	r3, r3, r2
 8002dd4:	f8c7 30b0 	str.w	r3, [r7, #176]	@ 0xb0
 8002dd8:	464b      	mov	r3, r9
 8002dda:	460a      	mov	r2, r1
 8002ddc:	eb42 0303 	adc.w	r3, r2, r3
 8002de0:	f8c7 30b4 	str.w	r3, [r7, #180]	@ 0xb4
 8002de4:	f8d7 30f4 	ldr.w	r3, [r7, #244]	@ 0xf4
 8002de8:	685b      	ldr	r3, [r3, #4]
 8002dea:	2200      	movs	r2, #0
 8002dec:	f8c7 30a8 	str.w	r3, [r7, #168]	@ 0xa8
 8002df0:	f8c7 20ac 	str.w	r2, [r7, #172]	@ 0xac
 8002df4:	e9d7 122a 	ldrd	r1, r2, [r7, #168]	@ 0xa8
 8002df8:	460b      	mov	r3, r1
 8002dfa:	18db      	adds	r3, r3, r3
 8002dfc:	62bb      	str	r3, [r7, #40]	@ 0x28
 8002dfe:	4613      	mov	r3, r2
 8002e00:	eb42 0303 	adc.w	r3, r2, r3
 8002e04:	62fb      	str	r3, [r7, #44]	@ 0x2c
 8002e06:	e9d7 230a 	ldrd	r2, r3, [r7, #40]	@ 0x28
 8002e0a:	e9d7 012c 	ldrd	r0, r1, [r7, #176]	@ 0xb0
 8002e0e:	f7fd f9f9 	bl	8000204 <__aeabi_uldivmod>
 8002e12:	4602      	mov	r2, r0
 8002e14:	460b      	mov	r3, r1
 8002e16:	4b0d      	ldr	r3, [pc, #52]	@ (8002e4c <UART_SetConfig+0x2d4>)
 8002e18:	fba3 1302 	umull	r1, r3, r3, r2
 8002e1c:	095b      	lsrs	r3, r3, #5
 8002e1e:	2164      	movs	r1, #100	@ 0x64
 8002e20:	fb01 f303 	mul.w	r3, r1, r3
 8002e24:	1ad3      	subs	r3, r2, r3
 8002e26:	00db      	lsls	r3, r3, #3
 8002e28:	3332      	adds	r3, #50	@ 0x32
 8002e2a:	4a08      	ldr	r2, [pc, #32]	@ (8002e4c <UART_SetConfig+0x2d4>)
 8002e2c:	fba2 2303 	umull	r2, r3, r2, r3
 8002e30:	095b      	lsrs	r3, r3, #5
 8002e32:	f003 0207 	and.w	r2, r3, #7
 8002e36:	f8d7 30f4 	ldr.w	r3, [r7, #244]	@ 0xf4
 8002e3a:	681b      	ldr	r3, [r3, #0]
 8002e3c:	4422      	add	r2, r4
 8002e3e:	609a      	str	r2, [r3, #8]
  }
  else
  {
    huart->Instance->BRR = UART_BRR_SAMPLING16(pclk, huart->Init.BaudRate);
  }
}
 8002e40:	e106      	b.n	8003050 <UART_SetConfig+0x4d8>
 8002e42:	bf00      	nop
 8002e44:	40011000 	.word	0x40011000
 8002e48:	40011400 	.word	0x40011400
 8002e4c:	51eb851f 	.word	0x51eb851f
    huart->Instance->BRR = UART_BRR_SAMPLING16(pclk, huart->Init.BaudRate);
 8002e50:	f8d7 30fc 	ldr.w	r3, [r7, #252]	@ 0xfc
 8002e54:	2200      	movs	r2, #0
 8002e56:	f8c7 30a0 	str.w	r3, [r7, #160]	@ 0xa0
 8002e5a:	f8c7 20a4 	str.w	r2, [r7, #164]	@ 0xa4
 8002e5e:	e9d7 8928 	ldrd	r8, r9, [r7, #160]	@ 0xa0
 8002e62:	4642      	mov	r2, r8
 8002e64:	464b      	mov	r3, r9
 8002e66:	1891      	adds	r1, r2, r2
 8002e68:	6239      	str	r1, [r7, #32]
 8002e6a:	415b      	adcs	r3, r3
 8002e6c:	627b      	str	r3, [r7, #36]	@ 0x24
 8002e6e:	e9d7 2308 	ldrd	r2, r3, [r7, #32]
 8002e72:	4641      	mov	r1, r8
 8002e74:	1854      	adds	r4, r2, r1
 8002e76:	4649      	mov	r1, r9
 8002e78:	eb43 0501 	adc.w	r5, r3, r1
 8002e7c:	f04f 0200 	mov.w	r2, #0
 8002e80:	f04f 0300 	mov.w	r3, #0
 8002e84:	00eb      	lsls	r3, r5, #3
 8002e86:	ea43 7354 	orr.w	r3, r3, r4, lsr #29
 8002e8a:	00e2      	lsls	r2, r4, #3
 8002e8c:	4614      	mov	r4, r2
 8002e8e:	461d      	mov	r5, r3
 8002e90:	4643      	mov	r3, r8
 8002e92:	18e3      	adds	r3, r4, r3
 8002e94:	f8c7 3098 	str.w	r3, [r7, #152]	@ 0x98
 8002e98:	464b      	mov	r3, r9
 8002e9a:	eb45 0303 	adc.w	r3, r5, r3
 8002e9e:	f8c7 309c 	str.w	r3, [r7, #156]	@ 0x9c
 8002ea2:	f8d7 30f4 	ldr.w	r3, [r7, #244]	@ 0xf4
 8002ea6:	685b      	ldr	r3, [r3, #4]
 8002ea8:	2200      	movs	r2, #0
 8002eaa:	f8c7 3090 	str.w	r3, [r7, #144]	@ 0x90
 8002eae:	f8c7 2094 	str.w	r2, [r7, #148]	@ 0x94
 8002eb2:	f04f 0200 	mov.w	r2, #0
 8002eb6:	f04f 0300 	mov.w	r3, #0
 8002eba:	e9d7 4524 	ldrd	r4, r5, [r7, #144]	@ 0x90
 8002ebe:	4629      	mov	r1, r5
 8002ec0:	008b      	lsls	r3, r1, #2
 8002ec2:	4621      	mov	r1, r4
 8002ec4:	ea43 7391 	orr.w	r3, r3, r1, lsr #30
 8002ec8:	4621      	mov	r1, r4
 8002eca:	008a      	lsls	r2, r1, #2
 8002ecc:	e9d7 0126 	ldrd	r0, r1, [r7, #152]	@ 0x98
 8002ed0:	f7fd f998 	bl	8000204 <__aeabi_uldivmod>
 8002ed4:	4602      	mov	r2, r0
 8002ed6:	460b      	mov	r3, r1
 8002ed8:	4b60      	ldr	r3, [pc, #384]	@ (800305c <UART_SetConfig+0x4e4>)
 8002eda:	fba3 2302 	umull	r2, r3, r3, r2
 8002ede:	095b      	lsrs	r3, r3, #5
 8002ee0:	011c      	lsls	r4, r3, #4
 8002ee2:	f8d7 30fc 	ldr.w	r3, [r7, #252]	@ 0xfc
 8002ee6:	2200      	movs	r2, #0
 8002ee8:	f8c7 3088 	str.w	r3, [r7, #136]	@ 0x88
 8002eec:	f8c7 208c 	str.w	r2, [r7, #140]	@ 0x8c
 8002ef0:	e9d7 8922 	ldrd	r8, r9, [r7, #136]	@ 0x88
 8002ef4:	4642      	mov	r2, r8
 8002ef6:	464b      	mov	r3, r9
 8002ef8:	1891      	adds	r1, r2, r2
 8002efa:	61b9      	str	r1, [r7, #24]
 8002efc:	415b      	adcs	r3, r3
 8002efe:	61fb      	str	r3, [r7, #28]
 8002f00:	e9d7 2306 	ldrd	r2, r3, [r7, #24]
 8002f04:	4641      	mov	r1, r8
 8002f06:	1851      	adds	r1, r2, r1
 8002f08:	6139      	str	r1, [r7, #16]
 8002f0a:	4649      	mov	r1, r9
 8002f0c:	414b      	adcs	r3, r1
 8002f0e:	617b      	str	r3, [r7, #20]
 8002f10:	f04f 0200 	mov.w	r2, #0
 8002f14:	f04f 0300 	mov.w	r3, #0
 8002f18:	e9d7 ab04 	ldrd	sl, fp, [r7, #16]
 8002f1c:	4659      	mov	r1, fp
 8002f1e:	00cb      	lsls	r3, r1, #3
 8002f20:	4651      	mov	r1, sl
 8002f22:	ea43 7351 	orr.w	r3, r3, r1, lsr #29
 8002f26:	4651      	mov	r1, sl
 8002f28:	00ca      	lsls	r2, r1, #3
 8002f2a:	4610      	mov	r0, r2
 8002f2c:	4619      	mov	r1, r3
 8002f2e:	4603      	mov	r3, r0
 8002f30:	4642      	mov	r2, r8
 8002f32:	189b      	adds	r3, r3, r2
 8002f34:	f8c7 3080 	str.w	r3, [r7, #128]	@ 0x80
 8002f38:	464b      	mov	r3, r9
 8002f3a:	460a      	mov	r2, r1
 8002f3c:	eb42 0303 	adc.w	r3, r2, r3
 8002f40:	f8c7 3084 	str.w	r3, [r7, #132]	@ 0x84
 8002f44:	f8d7 30f4 	ldr.w	r3, [r7, #244]	@ 0xf4
 8002f48:	685b      	ldr	r3, [r3, #4]
 8002f4a:	2200      	movs	r2, #0
 8002f4c:	67bb      	str	r3, [r7, #120]	@ 0x78
 8002f4e:	67fa      	str	r2, [r7, #124]	@ 0x7c
 8002f50:	f04f 0200 	mov.w	r2, #0
 8002f54:	f04f 0300 	mov.w	r3, #0
 8002f58:	e9d7 891e 	ldrd	r8, r9, [r7, #120]	@ 0x78
 8002f5c:	4649      	mov	r1, r9
 8002f5e:	008b      	lsls	r3, r1, #2
 8002f60:	4641      	mov	r1, r8
 8002f62:	ea43 7391 	orr.w	r3, r3, r1, lsr #30
 8002f66:	4641      	mov	r1, r8
 8002f68:	008a      	lsls	r2, r1, #2
 8002f6a:	e9d7 0120 	ldrd	r0, r1, [r7, #128]	@ 0x80
 8002f6e:	f7fd f949 	bl	8000204 <__aeabi_uldivmod>
 8002f72:	4602      	mov	r2, r0
 8002f74:	460b      	mov	r3, r1
 8002f76:	4611      	mov	r1, r2
 8002f78:	4b38      	ldr	r3, [pc, #224]	@ (800305c <UART_SetConfig+0x4e4>)
 8002f7a:	fba3 2301 	umull	r2, r3, r3, r1
 8002f7e:	095b      	lsrs	r3, r3, #5
 8002f80:	2264      	movs	r2, #100	@ 0x64
 8002f82:	fb02 f303 	mul.w	r3, r2, r3
 8002f86:	1acb      	subs	r3, r1, r3
 8002f88:	011b      	lsls	r3, r3, #4
 8002f8a:	3332      	adds	r3, #50	@ 0x32
 8002f8c:	4a33      	ldr	r2, [pc, #204]	@ (800305c <UART_SetConfig+0x4e4>)
 8002f8e:	fba2 2303 	umull	r2, r3, r2, r3
 8002f92:	095b      	lsrs	r3, r3, #5
 8002f94:	f003 03f0 	and.w	r3, r3, #240	@ 0xf0
 8002f98:	441c      	add	r4, r3
 8002f9a:	f8d7 30fc 	ldr.w	r3, [r7, #252]	@ 0xfc
 8002f9e:	2200      	movs	r2, #0
 8002fa0:	673b      	str	r3, [r7, #112]	@ 0x70
 8002fa2:	677a      	str	r2, [r7, #116]	@ 0x74
 8002fa4:	e9d7 891c 	ldrd	r8, r9, [r7, #112]	@ 0x70
 8002fa8:	4642      	mov	r2, r8
 8002faa:	464b      	mov	r3, r9
 8002fac:	1891      	adds	r1, r2, r2
 8002fae:	60b9      	str	r1, [r7, #8]
 8002fb0:	415b      	adcs	r3, r3
 8002fb2:	60fb      	str	r3, [r7, #12]
 8002fb4:	e9d7 2302 	ldrd	r2, r3, [r7, #8]
 8002fb8:	4641      	mov	r1, r8
 8002fba:	1851      	adds	r1, r2, r1
 8002fbc:	6039      	str	r1, [r7, #0]
 8002fbe:	4649      	mov	r1, r9
 8002fc0:	414b      	adcs	r3, r1
 8002fc2:	607b      	str	r3, [r7, #4]
 8002fc4:	f04f 0200 	mov.w	r2, #0
 8002fc8:	f04f 0300 	mov.w	r3, #0
 8002fcc:	e9d7 ab00 	ldrd	sl, fp, [r7]
 8002fd0:	4659      	mov	r1, fp
 8002fd2:	00cb      	lsls	r3, r1, #3
 8002fd4:	4651      	mov	r1, sl
 8002fd6:	ea43 7351 	orr.w	r3, r3, r1, lsr #29
 8002fda:	4651      	mov	r1, sl
 8002fdc:	00ca      	lsls	r2, r1, #3
 8002fde:	4610      	mov	r0, r2
 8002fe0:	4619      	mov	r1, r3
 8002fe2:	4603      	mov	r3, r0
 8002fe4:	4642      	mov	r2, r8
 8002fe6:	189b      	adds	r3, r3, r2
 8002fe8:	66bb      	str	r3, [r7, #104]	@ 0x68
 8002fea:	464b      	mov	r3, r9
 8002fec:	460a      	mov	r2, r1
 8002fee:	eb42 0303 	adc.w	r3, r2, r3
 8002ff2:	66fb      	str	r3, [r7, #108]	@ 0x6c
 8002ff4:	f8d7 30f4 	ldr.w	r3, [r7, #244]	@ 0xf4
 8002ff8:	685b      	ldr	r3, [r3, #4]
 8002ffa:	2200      	movs	r2, #0
 8002ffc:	663b      	str	r3, [r7, #96]	@ 0x60
 8002ffe:	667a      	str	r2, [r7, #100]	@ 0x64
 8003000:	f04f 0200 	mov.w	r2, #0
 8003004:	f04f 0300 	mov.w	r3, #0
 8003008:	e9d7 8918 	ldrd	r8, r9, [r7, #96]	@ 0x60
 800300c:	4649      	mov	r1, r9
 800300e:	008b      	lsls	r3, r1, #2
 8003010:	4641      	mov	r1, r8
 8003012:	ea43 7391 	orr.w	r3, r3, r1, lsr #30
 8003016:	4641      	mov	r1, r8
 8003018:	008a      	lsls	r2, r1, #2
 800301a:	e9d7 011a 	ldrd	r0, r1, [r7, #104]	@ 0x68
 800301e:	f7fd f8f1 	bl	8000204 <__aeabi_uldivmod>
 8003022:	4602      	mov	r2, r0
 8003024:	460b      	mov	r3, r1
 8003026:	4b0d      	ldr	r3, [pc, #52]	@ (800305c <UART_SetConfig+0x4e4>)
 8003028:	fba3 1302 	umull	r1, r3, r3, r2
 800302c:	095b      	lsrs	r3, r3, #5
 800302e:	2164      	movs	r1, #100	@ 0x64
 8003030:	fb01 f303 	mul.w	r3, r1, r3
 8003034:	1ad3      	subs	r3, r2, r3
 8003036:	011b      	lsls	r3, r3, #4
 8003038:	3332      	adds	r3, #50	@ 0x32
 800303a:	4a08      	ldr	r2, [pc, #32]	@ (800305c <UART_SetConfig+0x4e4>)
 800303c:	fba2 2303 	umull	r2, r3, r2, r3
 8003040:	095b      	lsrs	r3, r3, #5
 8003042:	f003 020f 	and.w	r2, r3, #15
 8003046:	f8d7 30f4 	ldr.w	r3, [r7, #244]	@ 0xf4
 800304a:	681b      	ldr	r3, [r3, #0]
 800304c:	4422      	add	r2, r4
 800304e:	609a      	str	r2, [r3, #8]
}
 8003050:	bf00      	nop
 8003052:	f507 7780 	add.w	r7, r7, #256	@ 0x100
 8003056:	46bd      	mov	sp, r7
 8003058:	e8bd 8fb0 	ldmia.w	sp!, {r4, r5, r7, r8, r9, sl, fp, pc}
 800305c:	51eb851f 	.word	0x51eb851f

08003060 <memset>:
 8003060:	4402      	add	r2, r0
 8003062:	4603      	mov	r3, r0
 8003064:	4293      	cmp	r3, r2
 8003066:	d100      	bne.n	800306a <memset+0xa>
 8003068:	4770      	bx	lr
 800306a:	f803 1b01 	strb.w	r1, [r3], #1
 800306e:	e7f9      	b.n	8003064 <memset+0x4>

08003070 <__libc_init_array>:
 8003070:	b570      	push	{r4, r5, r6, lr}
 8003072:	4d0d      	ldr	r5, [pc, #52]	@ (80030a8 <__libc_init_array+0x38>)
 8003074:	4c0d      	ldr	r4, [pc, #52]	@ (80030ac <__libc_init_array+0x3c>)
 8003076:	1b64      	subs	r4, r4, r5
 8003078:	10a4      	asrs	r4, r4, #2
 800307a:	2600      	movs	r6, #0
 800307c:	42a6      	cmp	r6, r4
 800307e:	d109      	bne.n	8003094 <__libc_init_array+0x24>
 8003080:	4d0b      	ldr	r5, [pc, #44]	@ (80030b0 <__libc_init_array+0x40>)
 8003082:	4c0c      	ldr	r4, [pc, #48]	@ (80030b4 <__libc_init_array+0x44>)
 8003084:	f000 f818 	bl	80030b8 <_init>
 8003088:	1b64      	subs	r4, r4, r5
 800308a:	10a4      	asrs	r4, r4, #2
 800308c:	2600      	movs	r6, #0
 800308e:	42a6      	cmp	r6, r4
 8003090:	d105      	bne.n	800309e <__libc_init_array+0x2e>
 8003092:	bd70      	pop	{r4, r5, r6, pc}
 8003094:	f855 3b04 	ldr.w	r3, [r5], #4
 8003098:	4798      	blx	r3
 800309a:	3601      	adds	r6, #1
 800309c:	e7ee      	b.n	800307c <__libc_init_array+0xc>
 800309e:	f855 3b04 	ldr.w	r3, [r5], #4
 80030a2:	4798      	blx	r3
 80030a4:	3601      	adds	r6, #1
 80030a6:	e7f2      	b.n	800308e <__libc_init_array+0x1e>
 80030a8:	080030f0 	.word	0x080030f0
 80030ac:	080030f0 	.word	0x080030f0
 80030b0:	080030f0 	.word	0x080030f0
 80030b4:	080030f4 	.word	0x080030f4

080030b8 <_init>:
 80030b8:	b5f8      	push	{r3, r4, r5, r6, r7, lr}
 80030ba:	bf00      	nop
 80030bc:	bcf8      	pop	{r3, r4, r5, r6, r7}
 80030be:	bc08      	pop	{r3}
 80030c0:	469e      	mov	lr, r3
 80030c2:	4770      	bx	lr

080030c4 <_fini>:
 80030c4:	b5f8      	push	{r3, r4, r5, r6, r7, lr}
 80030c6:	bf00      	nop
 80030c8:	bcf8      	pop	{r3, r4, r5, r6, r7}
 80030ca:	bc08      	pop	{r3}
 80030cc:	469e      	mov	lr, r3
 80030ce:	4770      	bx	lr
